
main.elf:     file format elf32-littlearm


Disassembly of section .text:

08000000 <__cs3_interrupt_vector>:
 8000000:	00 50 00 20 dd 3b 01 08 25 c6 00 08 29 c6 00 08     .P. .;..%...)...
 8000010:	2d c6 00 08 31 c6 00 08 35 c6 00 08 ed 3b 01 08     -...1...5....;..
 8000020:	ed 3b 01 08 ed 3b 01 08 ed 3b 01 08 ed 3b 01 08     .;...;...;...;..
 8000030:	ed 3b 01 08 ed 3b 01 08 ed 3b 01 08 25 c3 00 08     .;...;...;..%...
 8000040:	39 c6 00 08 39 c6 00 08 39 c6 00 08 39 c6 00 08     9...9...9...9...
 8000050:	39 c6 00 08 39 c6 00 08 11 c1 00 08 39 c6 00 08     9...9.......9...
 8000060:	39 c6 00 08 39 c6 00 08 39 c6 00 08 9d c1 00 08     9...9...9.......
 8000070:	ed 3b 01 08 ed 3b 01 08 55 c2 00 08 ed 3b 01 08     .;...;..U....;..
 8000080:	ed 3b 01 08 ed 3b 01 08 ed 3b 01 08 1d c6 00 08     .;...;...;......
 8000090:	21 c6 00 08 ed 3b 01 08 ed 3b 01 08 39 c6 00 08     !....;...;..9...
 80000a0:	39 c6 00 08 39 c6 00 08 39 c6 00 08 39 c6 00 08     9...9...9...9...
 80000b0:	39 c6 00 08 39 c6 00 08 39 c6 00 08 21 b7 00 08     9...9...9...!...
 80000c0:	a9 be 00 08 39 c6 00 08 39 c6 00 08 39 c6 00 08     ....9...9...9...
 80000d0:	39 c6 00 08 39 c6 00 08 39 c6 00 08 39 c6 00 08     9...9...9...9...
 80000e0:	39 c6 00 08 39 c6 00 08 39 c6 00 08                 9...9...9...

080000ec <__do_global_dtors_aux>:
 80000ec:	f240 6398 	movw	r3, #1688	; 0x698
 80000f0:	f2c2 0300 	movt	r3, #8192	; 0x2000
 80000f4:	781a      	ldrb	r2, [r3, #0]
 80000f6:	b90a      	cbnz	r2, 80000fc <__do_global_dtors_aux+0x10>
 80000f8:	2001      	movs	r0, #1
 80000fa:	7018      	strb	r0, [r3, #0]
 80000fc:	4770      	bx	lr
 80000fe:	bf00      	nop

08000100 <frame_dummy>:
 8000100:	f240 0000 	movw	r0, #0
 8000104:	f2c2 0000 	movt	r0, #8192	; 0x2000
 8000108:	b508      	push	{r3, lr}
 800010a:	6803      	ldr	r3, [r0, #0]
 800010c:	b12b      	cbz	r3, 800011a <frame_dummy+0x1a>
 800010e:	f240 0300 	movw	r3, #0
 8000112:	f2c0 0300 	movt	r3, #0
 8000116:	b103      	cbz	r3, 800011a <frame_dummy+0x1a>
 8000118:	4798      	blx	r3
 800011a:	bd08      	pop	{r3, pc}
 800011c:	0000      	movs	r0, r0
	...

08000120 <PPG_LO_Filter>:
 8000120:	e92d 4ff8 	stmdb	sp!, {r3, r4, r5, r6, r7, r8, r9, sl, fp, lr}
 8000124:	4604      	mov	r4, r0
 8000126:	48b1      	ldr	r0, [pc, #708]	; (80003ec <PPG_LO_Filter+0x2cc>)
 8000128:	f00c ffb4 	bl	800d094 <Tryfudge>
 800012c:	2100      	movs	r1, #0
 800012e:	460b      	mov	r3, r1
 8000130:	460a      	mov	r2, r1
 8000132:	4eaf      	ldr	r6, [pc, #700]	; (80003f0 <PPG_LO_Filter+0x2d0>)
 8000134:	f101 0748 	add.w	r7, r1, #72	; 0x48
 8000138:	f834 9011 	ldrh.w	r9, [r4, r1, lsl #1]
 800013c:	b2bf      	uxth	r7, r7
 800013e:	ebc7 0c01 	rsb	ip, r7, r1
 8000142:	f834 8011 	ldrh.w	r8, [r4, r1, lsl #1]
 8000146:	f916 ac47 	ldrsb.w	sl, [r6, #-71]
 800014a:	3101      	adds	r1, #1
 800014c:	fa0f f089 	sxth.w	r0, r9
 8000150:	f996 e001 	ldrsb.w	lr, [r6, #1]
 8000154:	b289      	uxth	r1, r1
 8000156:	ea6f 050c 	mvn.w	r5, ip
 800015a:	fa0f fb88 	sxth.w	fp, r8
 800015e:	fb0a 2200 	mla	r2, sl, r0, r2
 8000162:	1c70      	adds	r0, r6, #1
 8000164:	428f      	cmp	r7, r1
 8000166:	f005 0c03 	and.w	ip, r5, #3
 800016a:	fb0e 330b 	mla	r3, lr, fp, r3
 800016e:	f1a6 0547 	sub.w	r5, r6, #71	; 0x47
 8000172:	f000 808f 	beq.w	8000294 <PPG_LO_Filter+0x174>
 8000176:	fa0f fc8c 	sxth.w	ip, ip
 800017a:	f1bc 0f00 	cmp.w	ip, #0
 800017e:	d03f      	beq.n	8000200 <PPG_LO_Filter+0xe0>
 8000180:	f1bc 0f01 	cmp.w	ip, #1
 8000184:	d028      	beq.n	80001d8 <PPG_LO_Filter+0xb8>
 8000186:	f1bc 0f02 	cmp.w	ip, #2
 800018a:	d013      	beq.n	80001b4 <PPG_LO_Filter+0x94>
 800018c:	f834 a011 	ldrh.w	sl, [r4, r1, lsl #1]
 8000190:	f834 b011 	ldrh.w	fp, [r4, r1, lsl #1]
 8000194:	f916 9c46 	ldrsb.w	r9, [r6, #-70]
 8000198:	f910 cf01 	ldrsb.w	ip, [r0, #1]!
 800019c:	fa0f f88a 	sxth.w	r8, sl
 80001a0:	fa0f fe8b 	sxth.w	lr, fp
 80001a4:	fb09 2208 	mla	r2, r9, r8, r2
 80001a8:	fb0c 330e 	mla	r3, ip, lr, r3
 80001ac:	3101      	adds	r1, #1
 80001ae:	f1a6 0546 	sub.w	r5, r6, #70	; 0x46
 80001b2:	b289      	uxth	r1, r1
 80001b4:	f834 a011 	ldrh.w	sl, [r4, r1, lsl #1]
 80001b8:	f834 b011 	ldrh.w	fp, [r4, r1, lsl #1]
 80001bc:	f915 9f01 	ldrsb.w	r9, [r5, #1]!
 80001c0:	f910 cf01 	ldrsb.w	ip, [r0, #1]!
 80001c4:	fa0f f88a 	sxth.w	r8, sl
 80001c8:	fa0f fe8b 	sxth.w	lr, fp
 80001cc:	fb09 2208 	mla	r2, r9, r8, r2
 80001d0:	fb0c 330e 	mla	r3, ip, lr, r3
 80001d4:	1c4e      	adds	r6, r1, #1
 80001d6:	b2b1      	uxth	r1, r6
 80001d8:	f834 8011 	ldrh.w	r8, [r4, r1, lsl #1]
 80001dc:	f834 b011 	ldrh.w	fp, [r4, r1, lsl #1]
 80001e0:	3101      	adds	r1, #1
 80001e2:	f915 9f01 	ldrsb.w	r9, [r5, #1]!
 80001e6:	f910 ef01 	ldrsb.w	lr, [r0, #1]!
 80001ea:	b289      	uxth	r1, r1
 80001ec:	fa0f fc88 	sxth.w	ip, r8
 80001f0:	fa0f f68b 	sxth.w	r6, fp
 80001f4:	428f      	cmp	r7, r1
 80001f6:	fb09 220c 	mla	r2, r9, ip, r2
 80001fa:	fb0e 3306 	mla	r3, lr, r6, r3
 80001fe:	d049      	beq.n	8000294 <PPG_LO_Filter+0x174>
 8000200:	f834 c011 	ldrh.w	ip, [r4, r1, lsl #1]
 8000204:	f834 6011 	ldrh.w	r6, [r4, r1, lsl #1]
 8000208:	f995 9001 	ldrsb.w	r9, [r5, #1]
 800020c:	f990 e001 	ldrsb.w	lr, [r0, #1]
 8000210:	fa0f f88c 	sxth.w	r8, ip
 8000214:	fa0f fb86 	sxth.w	fp, r6
 8000218:	3101      	adds	r1, #1
 800021a:	fb09 2208 	mla	r2, r9, r8, r2
 800021e:	fb0e 330b 	mla	r3, lr, fp, r3
 8000222:	b289      	uxth	r1, r1
 8000224:	f834 a011 	ldrh.w	sl, [r4, r1, lsl #1]
 8000228:	f834 c011 	ldrh.w	ip, [r4, r1, lsl #1]
 800022c:	f995 8002 	ldrsb.w	r8, [r5, #2]
 8000230:	f990 6002 	ldrsb.w	r6, [r0, #2]
 8000234:	fa0f f98a 	sxth.w	r9, sl
 8000238:	fa0f fe8c 	sxth.w	lr, ip
 800023c:	3101      	adds	r1, #1
 800023e:	fb06 3c0e 	mla	ip, r6, lr, r3
 8000242:	b289      	uxth	r1, r1
 8000244:	fb08 2909 	mla	r9, r8, r9, r2
 8000248:	f834 b011 	ldrh.w	fp, [r4, r1, lsl #1]
 800024c:	f834 a011 	ldrh.w	sl, [r4, r1, lsl #1]
 8000250:	f995 2003 	ldrsb.w	r2, [r5, #3]
 8000254:	f990 3003 	ldrsb.w	r3, [r0, #3]
 8000258:	1c4e      	adds	r6, r1, #1
 800025a:	fa0f f88b 	sxth.w	r8, fp
 800025e:	fa0f fe8a 	sxth.w	lr, sl
 8000262:	b2b1      	uxth	r1, r6
 8000264:	fb02 9808 	mla	r8, r2, r8, r9
 8000268:	fb03 c60e 	mla	r6, r3, lr, ip
 800026c:	f834 b011 	ldrh.w	fp, [r4, r1, lsl #1]
 8000270:	f834 a011 	ldrh.w	sl, [r4, r1, lsl #1]
 8000274:	3101      	adds	r1, #1
 8000276:	f915 9f04 	ldrsb.w	r9, [r5, #4]!
 800027a:	f910 cf04 	ldrsb.w	ip, [r0, #4]!
 800027e:	b289      	uxth	r1, r1
 8000280:	fa0f f28b 	sxth.w	r2, fp
 8000284:	fa0f f38a 	sxth.w	r3, sl
 8000288:	428f      	cmp	r7, r1
 800028a:	fb09 8202 	mla	r2, r9, r2, r8
 800028e:	fb0c 6303 	mla	r3, ip, r3, r6
 8000292:	d1b5      	bne.n	8000200 <PPG_LO_Filter+0xe0>
 8000294:	f5b1 6f90 	cmp.w	r1, #1152	; 0x480
 8000298:	f47f af4b 	bne.w	8000132 <PPG_LO_Filter+0x12>
 800029c:	4c53      	ldr	r4, [pc, #332]	; (80003ec <PPG_LO_Filter+0x2cc>)
 800029e:	6960      	ldr	r0, [r4, #20]
 80002a0:	69a1      	ldr	r1, [r4, #24]
 80002a2:	00c5      	lsls	r5, r0, #3
 80002a4:	00cf      	lsls	r7, r1, #3
 80002a6:	ebc1 0a07 	rsb	sl, r1, r7
 80002aa:	0086      	lsls	r6, r0, #2
 80002ac:	ebc0 0b05 	rsb	fp, r0, r5
 80002b0:	ebc6 060a 	rsb	r6, r6, sl
 80002b4:	eb0b 0581 	add.w	r5, fp, r1, lsl #2
 80002b8:	10f0      	asrs	r0, r6, #3
 80002ba:	10e9      	asrs	r1, r5, #3
 80002bc:	f894 e01c 	ldrb.w	lr, [r4, #28]
 80002c0:	ea4f 09c1 	mov.w	r9, r1, lsl #3
 80002c4:	ea4f 0ac0 	mov.w	sl, r0, lsl #3
 80002c8:	6867      	ldr	r7, [r4, #4]
 80002ca:	68a6      	ldr	r6, [r4, #8]
 80002cc:	68e5      	ldr	r5, [r4, #12]
 80002ce:	f8d4 b010 	ldr.w	fp, [r4, #16]
 80002d2:	ea4f 0880 	mov.w	r8, r0, lsl #2
 80002d6:	ebc1 0909 	rsb	r9, r1, r9
 80002da:	ebc0 000a 	rsb	r0, r0, sl
 80002de:	f10e 0c01 	add.w	ip, lr, #1
 80002e2:	eb00 0181 	add.w	r1, r0, r1, lsl #2
 80002e6:	fa5f fe8c 	uxtb.w	lr, ip
 80002ea:	ebc8 0809 	rsb	r8, r8, r9
 80002ee:	19d0      	adds	r0, r2, r7
 80002f0:	199e      	adds	r6, r3, r6
 80002f2:	1955      	adds	r5, r2, r5
 80002f4:	eb03 070b 	add.w	r7, r3, fp
 80002f8:	eb02 02e8 	add.w	r2, r2, r8, asr #3
 80002fc:	eb03 03e1 	add.w	r3, r3, r1, asr #3
 8000300:	f1be 0f0c 	cmp.w	lr, #12
 8000304:	6060      	str	r0, [r4, #4]
 8000306:	60a6      	str	r6, [r4, #8]
 8000308:	60e5      	str	r5, [r4, #12]
 800030a:	6127      	str	r7, [r4, #16]
 800030c:	6162      	str	r2, [r4, #20]
 800030e:	61a3      	str	r3, [r4, #24]
 8000310:	f884 e01c 	strb.w	lr, [r4, #28]
 8000314:	d167      	bne.n	80003e6 <PPG_LO_Filter+0x2c6>
 8000316:	f012 fd0b 	bl	8012d30 <__aeabi_i2f>
 800031a:	4605      	mov	r5, r0
 800031c:	4630      	mov	r0, r6
 800031e:	f012 fd07 	bl	8012d30 <__aeabi_i2f>
 8000322:	4629      	mov	r1, r5
 8000324:	4607      	mov	r7, r0
 8000326:	4628      	mov	r0, r5
 8000328:	f012 fd56 	bl	8012dd8 <__aeabi_fmul>
 800032c:	4639      	mov	r1, r7
 800032e:	4605      	mov	r5, r0
 8000330:	4638      	mov	r0, r7
 8000332:	f012 fd51 	bl	8012dd8 <__aeabi_fmul>
 8000336:	4601      	mov	r1, r0
 8000338:	4628      	mov	r0, r5
 800033a:	f012 fc45 	bl	8012bc8 <__addsf3>
 800033e:	f010 fdf5 	bl	8010f2c <sqrtf>
 8000342:	4d2c      	ldr	r5, [pc, #176]	; (80003f4 <PPG_LO_Filter+0x2d4>)
 8000344:	6028      	str	r0, [r5, #0]
 8000346:	6828      	ldr	r0, [r5, #0]
 8000348:	f012 ff32 	bl	80131b0 <__aeabi_f2uiz>
 800034c:	492a      	ldr	r1, [pc, #168]	; (80003f8 <PPG_LO_Filter+0x2d8>)
 800034e:	0a00      	lsrs	r0, r0, #8
 8000350:	f001 fe24 	bl	8001f9c <Add_To_Buffer>
 8000354:	68e0      	ldr	r0, [r4, #12]
 8000356:	f012 fceb 	bl	8012d30 <__aeabi_i2f>
 800035a:	4606      	mov	r6, r0
 800035c:	6920      	ldr	r0, [r4, #16]
 800035e:	f012 fce7 	bl	8012d30 <__aeabi_i2f>
 8000362:	4631      	mov	r1, r6
 8000364:	4607      	mov	r7, r0
 8000366:	4630      	mov	r0, r6
 8000368:	f012 fd36 	bl	8012dd8 <__aeabi_fmul>
 800036c:	4639      	mov	r1, r7
 800036e:	4606      	mov	r6, r0
 8000370:	4638      	mov	r0, r7
 8000372:	f012 fd31 	bl	8012dd8 <__aeabi_fmul>
 8000376:	4601      	mov	r1, r0
 8000378:	4630      	mov	r0, r6
 800037a:	f012 fc25 	bl	8012bc8 <__addsf3>
 800037e:	f010 fdd5 	bl	8010f2c <sqrtf>
 8000382:	6068      	str	r0, [r5, #4]
 8000384:	6868      	ldr	r0, [r5, #4]
 8000386:	f012 ff13 	bl	80131b0 <__aeabi_f2uiz>
 800038a:	491c      	ldr	r1, [pc, #112]	; (80003fc <PPG_LO_Filter+0x2dc>)
 800038c:	0a00      	lsrs	r0, r0, #8
 800038e:	f001 fe05 	bl	8001f9c <Add_To_Buffer>
 8000392:	6960      	ldr	r0, [r4, #20]
 8000394:	f012 fccc 	bl	8012d30 <__aeabi_i2f>
 8000398:	4606      	mov	r6, r0
 800039a:	69a0      	ldr	r0, [r4, #24]
 800039c:	f012 fcc8 	bl	8012d30 <__aeabi_i2f>
 80003a0:	4631      	mov	r1, r6
 80003a2:	4607      	mov	r7, r0
 80003a4:	4630      	mov	r0, r6
 80003a6:	f012 fd17 	bl	8012dd8 <__aeabi_fmul>
 80003aa:	4639      	mov	r1, r7
 80003ac:	4606      	mov	r6, r0
 80003ae:	4638      	mov	r0, r7
 80003b0:	f012 fd12 	bl	8012dd8 <__aeabi_fmul>
 80003b4:	4601      	mov	r1, r0
 80003b6:	4630      	mov	r0, r6
 80003b8:	f012 fc06 	bl	8012bc8 <__addsf3>
 80003bc:	f010 fdb6 	bl	8010f2c <sqrtf>
 80003c0:	60a8      	str	r0, [r5, #8]
 80003c2:	68a8      	ldr	r0, [r5, #8]
 80003c4:	f012 fef4 	bl	80131b0 <__aeabi_f2uiz>
 80003c8:	490d      	ldr	r1, [pc, #52]	; (8000400 <PPG_LO_Filter+0x2e0>)
 80003ca:	0a00      	lsrs	r0, r0, #8
 80003cc:	f001 fde6 	bl	8001f9c <Add_To_Buffer>
 80003d0:	2100      	movs	r1, #0
 80003d2:	2218      	movs	r2, #24
 80003d4:	1d20      	adds	r0, r4, #4
 80003d6:	f013 f9df 	bl	8013798 <memset>
 80003da:	6821      	ldr	r1, [r4, #0]
 80003dc:	2200      	movs	r2, #0
 80003de:	f041 0307 	orr.w	r3, r1, #7
 80003e2:	7722      	strb	r2, [r4, #28]
 80003e4:	6023      	str	r3, [r4, #0]
 80003e6:	e8bd 8ff8 	ldmia.w	sp!, {r3, r4, r5, r6, r7, r8, r9, sl, fp, pc}
 80003ea:	bf00      	nop
 80003ec:	2000069c 	.word	0x2000069c
 80003f0:	08013c87 	.word	0x08013c87
 80003f4:	20000c54 	.word	0x20000c54
 80003f8:	20000d48 	.word	0x20000d48
 80003fc:	20000d54 	.word	0x20000d54
 8000400:	20000d60 	.word	0x20000d60

08000404 <PPG_Automatic_Brightness_Control>:
 8000404:	e92d 4ff0 	stmdb	sp!, {r4, r5, r6, r7, r8, r9, sl, fp, lr}
 8000408:	2200      	movs	r2, #0
 800040a:	b083      	sub	sp, #12
 800040c:	4f80      	ldr	r7, [pc, #512]	; (8000610 <PPG_Automatic_Brightness_Control+0x20c>)
 800040e:	4c81      	ldr	r4, [pc, #516]	; (8000614 <PPG_Automatic_Brightness_Control+0x210>)
 8000410:	9201      	str	r2, [sp, #4]
 8000412:	4692      	mov	sl, r2
 8000414:	4691      	mov	r9, r2
 8000416:	f04f 4880 	mov.w	r8, #1073741824	; 0x40000000
 800041a:	f8b8 003c 	ldrh.w	r0, [r8, #60]	; 0x3c
 800041e:	683d      	ldr	r5, [r7, #0]
 8000420:	b280      	uxth	r0, r0
 8000422:	f012 fc81 	bl	8012d28 <__aeabi_ui2f>
 8000426:	497c      	ldr	r1, [pc, #496]	; (8000618 <PPG_Automatic_Brightness_Control+0x214>)
 8000428:	f012 fd8a 	bl	8012f40 <__aeabi_fdiv>
 800042c:	f012 f840 	bl	80124b0 <__aeabi_f2d>
 8000430:	a373      	add	r3, pc, #460	; (adr r3, 8000600 <PPG_Automatic_Brightness_Control+0x1fc>)
 8000432:	e9d3 2300 	ldrd	r2, r3, [r3]
 8000436:	f012 f88f 	bl	8012558 <__aeabi_dmul>
 800043a:	f012 fb6f 	bl	8012b1c <__aeabi_d2f>
 800043e:	f010 fce5 	bl	8010e0c <sinf>
 8000442:	4606      	mov	r6, r0
 8000444:	4628      	mov	r0, r5
 8000446:	f012 feb3 	bl	80131b0 <__aeabi_f2uiz>
 800044a:	f012 fc6d 	bl	8012d28 <__aeabi_ui2f>
 800044e:	4601      	mov	r1, r0
 8000450:	4872      	ldr	r0, [pc, #456]	; (800061c <PPG_Automatic_Brightness_Control+0x218>)
 8000452:	f012 fd75 	bl	8012f40 <__aeabi_fdiv>
 8000456:	4601      	mov	r1, r0
 8000458:	4630      	mov	r0, r6
 800045a:	f012 fcbd 	bl	8012dd8 <__aeabi_fmul>
 800045e:	f04f 517e 	mov.w	r1, #1065353216	; 0x3f800000
 8000462:	4605      	mov	r5, r0
 8000464:	f012 fe74 	bl	8013150 <__aeabi_fcmpgt>
 8000468:	b108      	cbz	r0, 800046e <PPG_Automatic_Brightness_Control+0x6a>
 800046a:	f04f 557e 	mov.w	r5, #1065353216	; 0x3f800000
 800046e:	4628      	mov	r0, r5
 8000470:	f010 fd08 	bl	8010e84 <asinf>
 8000474:	f012 f81c 	bl	80124b0 <__aeabi_f2d>
 8000478:	a361      	add	r3, pc, #388	; (adr r3, 8000600 <PPG_Automatic_Brightness_Control+0x1fc>)
 800047a:	e9d3 2300 	ldrd	r2, r3, [r3]
 800047e:	f012 f995 	bl	80127ac <__aeabi_ddiv>
 8000482:	a361      	add	r3, pc, #388	; (adr r3, 8000608 <PPG_Automatic_Brightness_Control+0x204>)
 8000484:	e9d3 2300 	ldrd	r2, r3, [r3]
 8000488:	f012 f866 	bl	8012558 <__aeabi_dmul>
 800048c:	f012 fb26 	bl	8012adc <__aeabi_d2uiz>
 8000490:	4a63      	ldr	r2, [pc, #396]	; (8000620 <PPG_Automatic_Brightness_Control+0x21c>)
 8000492:	f8b8 303c 	ldrh.w	r3, [r8, #60]	; 0x3c
 8000496:	8e93      	ldrh	r3, [r2, #52]	; 0x34
 8000498:	b285      	uxth	r5, r0
 800049a:	b298      	uxth	r0, r3
 800049c:	f012 fc44 	bl	8012d28 <__aeabi_ui2f>
 80004a0:	495d      	ldr	r1, [pc, #372]	; (8000618 <PPG_Automatic_Brightness_Control+0x214>)
 80004a2:	f012 fd4d 	bl	8012f40 <__aeabi_fdiv>
 80004a6:	f012 f803 	bl	80124b0 <__aeabi_f2d>
 80004aa:	a355      	add	r3, pc, #340	; (adr r3, 8000600 <PPG_Automatic_Brightness_Control+0x1fc>)
 80004ac:	e9d3 2300 	ldrd	r2, r3, [r3]
 80004b0:	f012 f852 	bl	8012558 <__aeabi_dmul>
 80004b4:	f012 fb32 	bl	8012b1c <__aeabi_d2f>
 80004b8:	f010 fca8 	bl	8010e0c <sinf>
 80004bc:	f8d7 b004 	ldr.w	fp, [r7, #4]
 80004c0:	4606      	mov	r6, r0
 80004c2:	4658      	mov	r0, fp
 80004c4:	f012 fe74 	bl	80131b0 <__aeabi_f2uiz>
 80004c8:	f012 fc2e 	bl	8012d28 <__aeabi_ui2f>
 80004cc:	4601      	mov	r1, r0
 80004ce:	4853      	ldr	r0, [pc, #332]	; (800061c <PPG_Automatic_Brightness_Control+0x218>)
 80004d0:	f012 fd36 	bl	8012f40 <__aeabi_fdiv>
 80004d4:	4601      	mov	r1, r0
 80004d6:	4630      	mov	r0, r6
 80004d8:	f012 fc7e 	bl	8012dd8 <__aeabi_fmul>
 80004dc:	f04f 517e 	mov.w	r1, #1065353216	; 0x3f800000
 80004e0:	4606      	mov	r6, r0
 80004e2:	f012 fe35 	bl	8013150 <__aeabi_fcmpgt>
 80004e6:	b108      	cbz	r0, 80004ec <PPG_Automatic_Brightness_Control+0xe8>
 80004e8:	f04f 567e 	mov.w	r6, #1065353216	; 0x3f800000
 80004ec:	4630      	mov	r0, r6
 80004ee:	f010 fcc9 	bl	8010e84 <asinf>
 80004f2:	f011 ffdd 	bl	80124b0 <__aeabi_f2d>
 80004f6:	a342      	add	r3, pc, #264	; (adr r3, 8000600 <PPG_Automatic_Brightness_Control+0x1fc>)
 80004f8:	e9d3 2300 	ldrd	r2, r3, [r3]
 80004fc:	f012 f956 	bl	80127ac <__aeabi_ddiv>
 8000500:	a341      	add	r3, pc, #260	; (adr r3, 8000608 <PPG_Automatic_Brightness_Control+0x204>)
 8000502:	e9d3 2300 	ldrd	r2, r3, [r3]
 8000506:	f012 f827 	bl	8012558 <__aeabi_dmul>
 800050a:	f012 fae7 	bl	8012adc <__aeabi_d2uiz>
 800050e:	4a45      	ldr	r2, [pc, #276]	; (8000624 <PPG_Automatic_Brightness_Control+0x220>)
 8000510:	f8b8 303c 	ldrh.w	r3, [r8, #60]	; 0x3c
 8000514:	f8b2 3040 	ldrh.w	r3, [r2, #64]	; 0x40
 8000518:	b286      	uxth	r6, r0
 800051a:	b298      	uxth	r0, r3
 800051c:	f012 fc04 	bl	8012d28 <__aeabi_ui2f>
 8000520:	493d      	ldr	r1, [pc, #244]	; (8000618 <PPG_Automatic_Brightness_Control+0x214>)
 8000522:	f012 fd0d 	bl	8012f40 <__aeabi_fdiv>
 8000526:	f011 ffc3 	bl	80124b0 <__aeabi_f2d>
 800052a:	a335      	add	r3, pc, #212	; (adr r3, 8000600 <PPG_Automatic_Brightness_Control+0x1fc>)
 800052c:	e9d3 2300 	ldrd	r2, r3, [r3]
 8000530:	f012 f812 	bl	8012558 <__aeabi_dmul>
 8000534:	f012 faf2 	bl	8012b1c <__aeabi_d2f>
 8000538:	68bb      	ldr	r3, [r7, #8]
 800053a:	9300      	str	r3, [sp, #0]
 800053c:	f010 fc66 	bl	8010e0c <sinf>
 8000540:	9b00      	ldr	r3, [sp, #0]
 8000542:	4683      	mov	fp, r0
 8000544:	4618      	mov	r0, r3
 8000546:	f012 fe33 	bl	80131b0 <__aeabi_f2uiz>
 800054a:	f012 fbed 	bl	8012d28 <__aeabi_ui2f>
 800054e:	4601      	mov	r1, r0
 8000550:	4832      	ldr	r0, [pc, #200]	; (800061c <PPG_Automatic_Brightness_Control+0x218>)
 8000552:	f012 fcf5 	bl	8012f40 <__aeabi_fdiv>
 8000556:	4601      	mov	r1, r0
 8000558:	4658      	mov	r0, fp
 800055a:	f012 fc3d 	bl	8012dd8 <__aeabi_fmul>
 800055e:	f04f 517e 	mov.w	r1, #1065353216	; 0x3f800000
 8000562:	4683      	mov	fp, r0
 8000564:	f012 fdf4 	bl	8013150 <__aeabi_fcmpgt>
 8000568:	b108      	cbz	r0, 800056e <PPG_Automatic_Brightness_Control+0x16a>
 800056a:	f04f 5b7e 	mov.w	fp, #1065353216	; 0x3f800000
 800056e:	4658      	mov	r0, fp
 8000570:	f010 fc88 	bl	8010e84 <asinf>
 8000574:	f011 ff9c 	bl	80124b0 <__aeabi_f2d>
 8000578:	a321      	add	r3, pc, #132	; (adr r3, 8000600 <PPG_Automatic_Brightness_Control+0x1fc>)
 800057a:	e9d3 2300 	ldrd	r2, r3, [r3]
 800057e:	f012 f915 	bl	80127ac <__aeabi_ddiv>
 8000582:	a321      	add	r3, pc, #132	; (adr r3, 8000608 <PPG_Automatic_Brightness_Control+0x204>)
 8000584:	e9d3 2300 	ldrd	r2, r3, [r3]
 8000588:	f011 ffe6 	bl	8012558 <__aeabi_dmul>
 800058c:	f012 faa6 	bl	8012adc <__aeabi_d2uiz>
 8000590:	fa1f fb80 	uxth.w	fp, r0
 8000594:	4659      	mov	r1, fp
 8000596:	4823      	ldr	r0, [pc, #140]	; (8000624 <PPG_Automatic_Brightness_Control+0x220>)
 8000598:	f00e fe39 	bl	800f20e <TIM_SetCompare4>
 800059c:	4820      	ldr	r0, [pc, #128]	; (8000620 <PPG_Automatic_Brightness_Control+0x21c>)
 800059e:	4631      	mov	r1, r6
 80005a0:	f00e fe2f 	bl	800f202 <TIM_SetCompare1>
 80005a4:	f04f 4080 	mov.w	r0, #1073741824	; 0x40000000
 80005a8:	4629      	mov	r1, r5
 80005aa:	f00e fe2e 	bl	800f20a <TIM_SetCompare3>
 80005ae:	6822      	ldr	r2, [r4, #0]
 80005b0:	3240      	adds	r2, #64	; 0x40
 80005b2:	6823      	ldr	r3, [r4, #0]
 80005b4:	429a      	cmp	r2, r3
 80005b6:	d8fc      	bhi.n	80005b2 <PPG_Automatic_Brightness_Control+0x1ae>
 80005b8:	ebc9 0905 	rsb	r9, r9, r5
 80005bc:	f1b9 0f00 	cmp.w	r9, #0
 80005c0:	bfb8      	it	lt
 80005c2:	f1c9 0900 	rsblt	r9, r9, #0
 80005c6:	f1b9 0f03 	cmp.w	r9, #3
 80005ca:	dc11      	bgt.n	80005f0 <PPG_Automatic_Brightness_Control+0x1ec>
 80005cc:	ebca 0a06 	rsb	sl, sl, r6
 80005d0:	f1ba 0f00 	cmp.w	sl, #0
 80005d4:	bfb8      	it	lt
 80005d6:	f1ca 0a00 	rsblt	sl, sl, #0
 80005da:	f1ba 0f03 	cmp.w	sl, #3
 80005de:	dc07      	bgt.n	80005f0 <PPG_Automatic_Brightness_Control+0x1ec>
 80005e0:	9a01      	ldr	r2, [sp, #4]
 80005e2:	ebc2 010b 	rsb	r1, r2, fp
 80005e6:	2900      	cmp	r1, #0
 80005e8:	bfb8      	it	lt
 80005ea:	4249      	neglt	r1, r1
 80005ec:	2903      	cmp	r1, #3
 80005ee:	dd04      	ble.n	80005fa <PPG_Automatic_Brightness_Control+0x1f6>
 80005f0:	f8cd b004 	str.w	fp, [sp, #4]
 80005f4:	46b2      	mov	sl, r6
 80005f6:	46a9      	mov	r9, r5
 80005f8:	e70f      	b.n	800041a <PPG_Automatic_Brightness_Control+0x16>
 80005fa:	b003      	add	sp, #12
 80005fc:	e8bd 8ff0 	ldmia.w	sp!, {r4, r5, r6, r7, r8, r9, sl, fp, pc}
 8000600:	54442d18 	.word	0x54442d18
 8000604:	400921fb 	.word	0x400921fb
 8000608:	00000000 	.word	0x00000000
 800060c:	40779000 	.word	0x40779000
 8000610:	20000c54 	.word	0x20000c54
 8000614:	20000d70 	.word	0x20000d70
 8000618:	43bc8000 	.word	0x43bc8000
 800061c:	4c9964ee 	.word	0x4c9964ee
 8000620:	40000400 	.word	0x40000400
 8000624:	40000800 	.word	0x40000800

08000628 <PPG_correct_brightness>:
 8000628:	b538      	push	{r3, r4, r5, lr}
 800062a:	4604      	mov	r4, r0
 800062c:	4608      	mov	r0, r1
 800062e:	f012 fb7b 	bl	8012d28 <__aeabi_ui2f>
 8000632:	491f      	ldr	r1, [pc, #124]	; (80006b0 <PPG_correct_brightness+0x88>)
 8000634:	f012 fc84 	bl	8012f40 <__aeabi_fdiv>
 8000638:	f011 ff3a 	bl	80124b0 <__aeabi_f2d>
 800063c:	a318      	add	r3, pc, #96	; (adr r3, 80006a0 <PPG_correct_brightness+0x78>)
 800063e:	e9d3 2300 	ldrd	r2, r3, [r3]
 8000642:	f011 ff89 	bl	8012558 <__aeabi_dmul>
 8000646:	f012 fa69 	bl	8012b1c <__aeabi_d2f>
 800064a:	f010 fbdf 	bl	8010e0c <sinf>
 800064e:	4605      	mov	r5, r0
 8000650:	4620      	mov	r0, r4
 8000652:	f012 fb69 	bl	8012d28 <__aeabi_ui2f>
 8000656:	4601      	mov	r1, r0
 8000658:	4816      	ldr	r0, [pc, #88]	; (80006b4 <PPG_correct_brightness+0x8c>)
 800065a:	f012 fc71 	bl	8012f40 <__aeabi_fdiv>
 800065e:	4629      	mov	r1, r5
 8000660:	f012 fbba 	bl	8012dd8 <__aeabi_fmul>
 8000664:	f04f 517e 	mov.w	r1, #1065353216	; 0x3f800000
 8000668:	4604      	mov	r4, r0
 800066a:	f012 fd71 	bl	8013150 <__aeabi_fcmpgt>
 800066e:	b108      	cbz	r0, 8000674 <PPG_correct_brightness+0x4c>
 8000670:	f04f 547e 	mov.w	r4, #1065353216	; 0x3f800000
 8000674:	4620      	mov	r0, r4
 8000676:	f010 fc05 	bl	8010e84 <asinf>
 800067a:	f011 ff19 	bl	80124b0 <__aeabi_f2d>
 800067e:	a308      	add	r3, pc, #32	; (adr r3, 80006a0 <PPG_correct_brightness+0x78>)
 8000680:	e9d3 2300 	ldrd	r2, r3, [r3]
 8000684:	f012 f892 	bl	80127ac <__aeabi_ddiv>
 8000688:	a307      	add	r3, pc, #28	; (adr r3, 80006a8 <PPG_correct_brightness+0x80>)
 800068a:	e9d3 2300 	ldrd	r2, r3, [r3]
 800068e:	f011 ff63 	bl	8012558 <__aeabi_dmul>
 8000692:	f012 fa23 	bl	8012adc <__aeabi_d2uiz>
 8000696:	b280      	uxth	r0, r0
 8000698:	bd38      	pop	{r3, r4, r5, pc}
 800069a:	bf00      	nop
 800069c:	f3af 8000 	nop.w
 80006a0:	54442d18 	.word	0x54442d18
 80006a4:	400921fb 	.word	0x400921fb
 80006a8:	00000000 	.word	0x00000000
 80006ac:	40779000 	.word	0x40779000
 80006b0:	43bc8000 	.word	0x43bc8000
 80006b4:	4c9964ee 	.word	0x4c9964ee

080006b8 <PWM_Linear>:
 80006b8:	b510      	push	{r4, lr}
 80006ba:	f012 fb35 	bl	8012d28 <__aeabi_ui2f>
 80006be:	490a      	ldr	r1, [pc, #40]	; (80006e8 <PWM_Linear+0x30>)
 80006c0:	f012 fc3e 	bl	8012f40 <__aeabi_fdiv>
 80006c4:	f011 fef4 	bl	80124b0 <__aeabi_f2d>
 80006c8:	a305      	add	r3, pc, #20	; (adr r3, 80006e0 <PWM_Linear+0x28>)
 80006ca:	e9d3 2300 	ldrd	r2, r3, [r3]
 80006ce:	f011 ff43 	bl	8012558 <__aeabi_dmul>
 80006d2:	f012 fa23 	bl	8012b1c <__aeabi_d2f>
 80006d6:	e8bd 4010 	ldmia.w	sp!, {r4, lr}
 80006da:	f010 bb97 	b.w	8010e0c <sinf>
 80006de:	bf00      	nop
 80006e0:	54442d18 	.word	0x54442d18
 80006e4:	400921fb 	.word	0x400921fb
 80006e8:	43bc8000 	.word	0x43bc8000
 80006ec:	f3af 8000 	nop.w

080006f0 <calibrate_sensor>:
 80006f0:	b570      	push	{r4, r5, r6, lr}
 80006f2:	24ff      	movs	r4, #255	; 0xff
 80006f4:	b082      	sub	sp, #8
 80006f6:	2500      	movs	r5, #0
 80006f8:	f242 7610 	movw	r6, #10000	; 0x2710
 80006fc:	2001      	movs	r0, #1
 80006fe:	f00a fea9 	bl	800b454 <readADC2>
 8000702:	9601      	str	r6, [sp, #4]
 8000704:	9b01      	ldr	r3, [sp, #4]
 8000706:	182d      	adds	r5, r5, r0
 8000708:	b12b      	cbz	r3, 8000716 <calibrate_sensor+0x26>
 800070a:	9a01      	ldr	r2, [sp, #4]
 800070c:	1e51      	subs	r1, r2, #1
 800070e:	9101      	str	r1, [sp, #4]
 8000710:	9801      	ldr	r0, [sp, #4]
 8000712:	2800      	cmp	r0, #0
 8000714:	d1f9      	bne.n	800070a <calibrate_sensor+0x1a>
 8000716:	3c01      	subs	r4, #1
 8000718:	b2e4      	uxtb	r4, r4
 800071a:	2c00      	cmp	r4, #0
 800071c:	d1ee      	bne.n	80006fc <calibrate_sensor+0xc>
 800071e:	4628      	mov	r0, r5
 8000720:	f012 fb02 	bl	8012d28 <__aeabi_ui2f>
 8000724:	4903      	ldr	r1, [pc, #12]	; (8000734 <calibrate_sensor+0x44>)
 8000726:	f012 fc0b 	bl	8012f40 <__aeabi_fdiv>
 800072a:	4b03      	ldr	r3, [pc, #12]	; (8000738 <calibrate_sensor+0x48>)
 800072c:	6018      	str	r0, [r3, #0]
 800072e:	b002      	add	sp, #8
 8000730:	bd70      	pop	{r4, r5, r6, pc}
 8000732:	bf00      	nop
 8000734:	437f0000 	.word	0x437f0000
 8000738:	20000c64 	.word	0x20000c64

0800073c <conv_adc_diff>:
 800073c:	b510      	push	{r4, lr}
 800073e:	2001      	movs	r0, #1
 8000740:	f00a fe88 	bl	800b454 <readADC2>
 8000744:	4b0a      	ldr	r3, [pc, #40]	; (8000770 <conv_adc_diff+0x34>)
 8000746:	681c      	ldr	r4, [r3, #0]
 8000748:	f012 faee 	bl	8012d28 <__aeabi_ui2f>
 800074c:	4621      	mov	r1, r4
 800074e:	f012 fa39 	bl	8012bc4 <__aeabi_fsub>
 8000752:	f011 fead 	bl	80124b0 <__aeabi_f2d>
 8000756:	a304      	add	r3, pc, #16	; (adr r3, 8000768 <conv_adc_diff+0x2c>)
 8000758:	e9d3 2300 	ldrd	r2, r3, [r3]
 800075c:	f011 fefc 	bl	8012558 <__aeabi_dmul>
 8000760:	f012 f9dc 	bl	8012b1c <__aeabi_d2f>
 8000764:	bd10      	pop	{r4, pc}
 8000766:	bf00      	nop
 8000768:	f9914e92 	.word	0xf9914e92
 800076c:	bf6433a7 	.word	0xbf6433a7
 8000770:	20000c64 	.word	0x20000c64

08000774 <conv_diff>:
 8000774:	4b0a      	ldr	r3, [pc, #40]	; (80007a0 <conv_diff+0x2c>)
 8000776:	b510      	push	{r4, lr}
 8000778:	681c      	ldr	r4, [r3, #0]
 800077a:	f012 fad5 	bl	8012d28 <__aeabi_ui2f>
 800077e:	4621      	mov	r1, r4
 8000780:	f012 fa20 	bl	8012bc4 <__aeabi_fsub>
 8000784:	f011 fe94 	bl	80124b0 <__aeabi_f2d>
 8000788:	a303      	add	r3, pc, #12	; (adr r3, 8000798 <conv_diff+0x24>)
 800078a:	e9d3 2300 	ldrd	r2, r3, [r3]
 800078e:	f011 fee3 	bl	8012558 <__aeabi_dmul>
 8000792:	f012 f9c3 	bl	8012b1c <__aeabi_d2f>
 8000796:	bd10      	pop	{r4, pc}
 8000798:	f9914e92 	.word	0xf9914e92
 800079c:	bf6433a7 	.word	0xbf6433a7
 80007a0:	20000c64 	.word	0x20000c64

080007a4 <filterloop>:
 80007a4:	e92d 4ff0 	stmdb	sp!, {r4, r5, r6, r7, r8, r9, sl, fp, lr}
 80007a8:	4c5f      	ldr	r4, [pc, #380]	; (8000928 <filterloop+0x184>)
 80007aa:	b087      	sub	sp, #28
 80007ac:	f8d4 c020 	ldr.w	ip, [r4, #32]
 80007b0:	f8d4 e024 	ldr.w	lr, [r4, #36]	; 0x24
 80007b4:	6aa2      	ldr	r2, [r4, #40]	; 0x28
 80007b6:	6ae1      	ldr	r1, [r4, #44]	; 0x2c
 80007b8:	6b23      	ldr	r3, [r4, #48]	; 0x30
 80007ba:	f8cd c004 	str.w	ip, [sp, #4]
 80007be:	f8cd e008 	str.w	lr, [sp, #8]
 80007c2:	9203      	str	r2, [sp, #12]
 80007c4:	9104      	str	r1, [sp, #16]
 80007c6:	9305      	str	r3, [sp, #20]
 80007c8:	f8dd e008 	ldr.w	lr, [sp, #8]
 80007cc:	f8dd c004 	ldr.w	ip, [sp, #4]
 80007d0:	6867      	ldr	r7, [r4, #4]
 80007d2:	68a6      	ldr	r6, [r4, #8]
 80007d4:	68e5      	ldr	r5, [r4, #12]
 80007d6:	f8d4 8010 	ldr.w	r8, [r4, #16]
 80007da:	f8d4 9014 	ldr.w	r9, [r4, #20]
 80007de:	f8d4 a018 	ldr.w	sl, [r4, #24]
 80007e2:	f8d4 b01c 	ldr.w	fp, [r4, #28]
 80007e6:	9a03      	ldr	r2, [sp, #12]
 80007e8:	9904      	ldr	r1, [sp, #16]
 80007ea:	9b05      	ldr	r3, [sp, #20]
 80007ec:	f8c4 e020 	str.w	lr, [r4, #32]
 80007f0:	f8c4 c01c 	str.w	ip, [r4, #28]
 80007f4:	6262      	str	r2, [r4, #36]	; 0x24
 80007f6:	6027      	str	r7, [r4, #0]
 80007f8:	6066      	str	r6, [r4, #4]
 80007fa:	60a5      	str	r5, [r4, #8]
 80007fc:	f8c4 800c 	str.w	r8, [r4, #12]
 8000800:	f8c4 9010 	str.w	r9, [r4, #16]
 8000804:	f8c4 a014 	str.w	sl, [r4, #20]
 8000808:	f8c4 b018 	str.w	fp, [r4, #24]
 800080c:	62a1      	str	r1, [r4, #40]	; 0x28
 800080e:	62e3      	str	r3, [r4, #44]	; 0x2c
 8000810:	f8cd b000 	str.w	fp, [sp]
 8000814:	f011 fe4c 	bl	80124b0 <__aeabi_f2d>
 8000818:	a341      	add	r3, pc, #260	; (adr r3, 8000920 <filterloop+0x17c>)
 800081a:	e9d3 2300 	ldrd	r2, r3, [r3]
 800081e:	f011 ffc5 	bl	80127ac <__aeabi_ddiv>
 8000822:	f012 f97b 	bl	8012b1c <__aeabi_d2f>
 8000826:	4683      	mov	fp, r0
 8000828:	f8c4 b030 	str.w	fp, [r4, #48]	; 0x30
 800082c:	493f      	ldr	r1, [pc, #252]	; (800092c <filterloop+0x188>)
 800082e:	4638      	mov	r0, r7
 8000830:	f012 fad2 	bl	8012dd8 <__aeabi_fmul>
 8000834:	2100      	movs	r1, #0
 8000836:	f012 f9c7 	bl	8012bc8 <__addsf3>
 800083a:	493d      	ldr	r1, [pc, #244]	; (8000930 <filterloop+0x18c>)
 800083c:	4604      	mov	r4, r0
 800083e:	4630      	mov	r0, r6
 8000840:	f012 faca 	bl	8012dd8 <__aeabi_fmul>
 8000844:	4601      	mov	r1, r0
 8000846:	4620      	mov	r0, r4
 8000848:	f012 f9be 	bl	8012bc8 <__addsf3>
 800084c:	4939      	ldr	r1, [pc, #228]	; (8000934 <filterloop+0x190>)
 800084e:	4604      	mov	r4, r0
 8000850:	4628      	mov	r0, r5
 8000852:	f012 fac1 	bl	8012dd8 <__aeabi_fmul>
 8000856:	4601      	mov	r1, r0
 8000858:	4620      	mov	r0, r4
 800085a:	f012 f9b5 	bl	8012bc8 <__addsf3>
 800085e:	4936      	ldr	r1, [pc, #216]	; (8000938 <filterloop+0x194>)
 8000860:	4604      	mov	r4, r0
 8000862:	4640      	mov	r0, r8
 8000864:	f012 fab8 	bl	8012dd8 <__aeabi_fmul>
 8000868:	4601      	mov	r1, r0
 800086a:	4620      	mov	r0, r4
 800086c:	f012 f9ac 	bl	8012bc8 <__addsf3>
 8000870:	4932      	ldr	r1, [pc, #200]	; (800093c <filterloop+0x198>)
 8000872:	4604      	mov	r4, r0
 8000874:	4648      	mov	r0, r9
 8000876:	f012 faaf 	bl	8012dd8 <__aeabi_fmul>
 800087a:	4601      	mov	r1, r0
 800087c:	4620      	mov	r0, r4
 800087e:	f012 f9a3 	bl	8012bc8 <__addsf3>
 8000882:	492f      	ldr	r1, [pc, #188]	; (8000940 <filterloop+0x19c>)
 8000884:	4604      	mov	r4, r0
 8000886:	4650      	mov	r0, sl
 8000888:	f012 faa6 	bl	8012dd8 <__aeabi_fmul>
 800088c:	4601      	mov	r1, r0
 800088e:	4620      	mov	r0, r4
 8000890:	f012 f99a 	bl	8012bc8 <__addsf3>
 8000894:	f8dd c000 	ldr.w	ip, [sp]
 8000898:	4604      	mov	r4, r0
 800089a:	492a      	ldr	r1, [pc, #168]	; (8000944 <filterloop+0x1a0>)
 800089c:	4660      	mov	r0, ip
 800089e:	f012 fa9b 	bl	8012dd8 <__aeabi_fmul>
 80008a2:	4601      	mov	r1, r0
 80008a4:	4620      	mov	r0, r4
 80008a6:	f012 f98f 	bl	8012bc8 <__addsf3>
 80008aa:	4925      	ldr	r1, [pc, #148]	; (8000940 <filterloop+0x19c>)
 80008ac:	4604      	mov	r4, r0
 80008ae:	9801      	ldr	r0, [sp, #4]
 80008b0:	f012 fa92 	bl	8012dd8 <__aeabi_fmul>
 80008b4:	4601      	mov	r1, r0
 80008b6:	4620      	mov	r0, r4
 80008b8:	f012 f986 	bl	8012bc8 <__addsf3>
 80008bc:	491f      	ldr	r1, [pc, #124]	; (800093c <filterloop+0x198>)
 80008be:	4604      	mov	r4, r0
 80008c0:	9802      	ldr	r0, [sp, #8]
 80008c2:	f012 fa89 	bl	8012dd8 <__aeabi_fmul>
 80008c6:	4601      	mov	r1, r0
 80008c8:	4620      	mov	r0, r4
 80008ca:	f012 f97d 	bl	8012bc8 <__addsf3>
 80008ce:	491a      	ldr	r1, [pc, #104]	; (8000938 <filterloop+0x194>)
 80008d0:	4604      	mov	r4, r0
 80008d2:	9803      	ldr	r0, [sp, #12]
 80008d4:	f012 fa80 	bl	8012dd8 <__aeabi_fmul>
 80008d8:	4601      	mov	r1, r0
 80008da:	4620      	mov	r0, r4
 80008dc:	f012 f974 	bl	8012bc8 <__addsf3>
 80008e0:	4914      	ldr	r1, [pc, #80]	; (8000934 <filterloop+0x190>)
 80008e2:	4604      	mov	r4, r0
 80008e4:	9804      	ldr	r0, [sp, #16]
 80008e6:	f012 fa77 	bl	8012dd8 <__aeabi_fmul>
 80008ea:	4601      	mov	r1, r0
 80008ec:	4620      	mov	r0, r4
 80008ee:	f012 f96b 	bl	8012bc8 <__addsf3>
 80008f2:	490f      	ldr	r1, [pc, #60]	; (8000930 <filterloop+0x18c>)
 80008f4:	4604      	mov	r4, r0
 80008f6:	9805      	ldr	r0, [sp, #20]
 80008f8:	f012 fa6e 	bl	8012dd8 <__aeabi_fmul>
 80008fc:	4601      	mov	r1, r0
 80008fe:	4620      	mov	r0, r4
 8000900:	f012 f962 	bl	8012bc8 <__addsf3>
 8000904:	4909      	ldr	r1, [pc, #36]	; (800092c <filterloop+0x188>)
 8000906:	4604      	mov	r4, r0
 8000908:	4658      	mov	r0, fp
 800090a:	f012 fa65 	bl	8012dd8 <__aeabi_fmul>
 800090e:	4621      	mov	r1, r4
 8000910:	f012 f95a 	bl	8012bc8 <__addsf3>
 8000914:	b007      	add	sp, #28
 8000916:	e8bd 8ff0 	ldmia.w	sp!, {r4, r5, r6, r7, r8, r9, sl, fp, pc}
 800091a:	bf00      	nop
 800091c:	f3af 8000 	nop.w
 8000920:	9663da1a 	.word	0x9663da1a
 8000924:	402662fb 	.word	0x402662fb
 8000928:	200006bc 	.word	0x200006bc
 800092c:	3eab9582 	.word	0x3eab9582
 8000930:	3f0a4413 	.word	0x3f0a4413
 8000934:	3f41a799 	.word	0x3f41a799
 8000938:	3f75e613 	.word	0x3f75e613
 800093c:	3f9064ea 	.word	0x3f9064ea
 8000940:	3f9e7aa1 	.word	0x3f9e7aa1
 8000944:	3fa3634e 	.word	0x3fa3634e

08000948 <convert_die_temp>:
 8000948:	b508      	push	{r3, lr}
 800094a:	f012 f9ed 	bl	8012d28 <__aeabi_ui2f>
 800094e:	4903      	ldr	r1, [pc, #12]	; (800095c <convert_die_temp+0x14>)
 8000950:	f012 fa42 	bl	8012dd8 <__aeabi_fmul>
 8000954:	4902      	ldr	r1, [pc, #8]	; (8000960 <convert_die_temp+0x18>)
 8000956:	f012 f935 	bl	8012bc4 <__aeabi_fsub>
 800095a:	bd08      	pop	{r3, pc}
 800095c:	3e3fdb4d 	.word	0x3e3fdb4d
 8000960:	43b2cccd 	.word	0x43b2cccd

08000964 <convert_tmp102_temp>:
 8000964:	b508      	push	{r3, lr}
 8000966:	0a03      	lsrs	r3, r0, #8
 8000968:	ea43 2000 	orr.w	r0, r3, r0, lsl #8
 800096c:	f3c0 00cc 	ubfx	r0, r0, #3, #13
 8000970:	f410 5f80 	tst.w	r0, #4096	; 0x1000
 8000974:	d106      	bne.n	8000984 <convert_tmp102_temp+0x20>
 8000976:	f012 f9d7 	bl	8012d28 <__aeabi_ui2f>
 800097a:	f04f 5176 	mov.w	r1, #1031798784	; 0x3d800000
 800097e:	f012 fa2b 	bl	8012dd8 <__aeabi_fmul>
 8000982:	bd08      	pop	{r3, pc}
 8000984:	0501      	lsls	r1, r0, #20
 8000986:	0d08      	lsrs	r0, r1, #20
 8000988:	f012 f9d2 	bl	8012d30 <__aeabi_i2f>
 800098c:	f04f 5176 	mov.w	r1, #1031798784	; 0x3d800000
 8000990:	f012 fa22 	bl	8012dd8 <__aeabi_fmul>
 8000994:	bd08      	pop	{r3, pc}
 8000996:	bf00      	nop

08000998 <Set_System>:
 8000998:	2000      	movs	r0, #0
 800099a:	f000 b94d 	b.w	8000c38 <MAL_Init>
 800099e:	bf00      	nop

080009a0 <Set_USBClock>:
 80009a0:	2000      	movs	r0, #0
 80009a2:	b510      	push	{r4, lr}
 80009a4:	f00d fcc6 	bl	800e334 <RCC_USBCLKConfig>
 80009a8:	f44f 0000 	mov.w	r0, #8388608	; 0x800000
 80009ac:	2101      	movs	r1, #1
 80009ae:	e8bd 4010 	ldmia.w	sp!, {r4, lr}
 80009b2:	f00d bd5d 	b.w	800e470 <RCC_APB1PeriphClockCmd>
 80009b6:	bf00      	nop

080009b8 <Enter_LowPowerMode>:
 80009b8:	4b01      	ldr	r3, [pc, #4]	; (80009c0 <Enter_LowPowerMode+0x8>)
 80009ba:	2203      	movs	r2, #3
 80009bc:	601a      	str	r2, [r3, #0]
 80009be:	4770      	bx	lr
 80009c0:	2000092c 	.word	0x2000092c

080009c4 <Leave_LowPowerMode>:
 80009c4:	4805      	ldr	r0, [pc, #20]	; (80009dc <Leave_LowPowerMode+0x18>)
 80009c6:	7a83      	ldrb	r3, [r0, #10]
 80009c8:	b91b      	cbnz	r3, 80009d2 <Leave_LowPowerMode+0xe>
 80009ca:	4b05      	ldr	r3, [pc, #20]	; (80009e0 <Leave_LowPowerMode+0x1c>)
 80009cc:	2001      	movs	r0, #1
 80009ce:	6018      	str	r0, [r3, #0]
 80009d0:	4770      	bx	lr
 80009d2:	4903      	ldr	r1, [pc, #12]	; (80009e0 <Leave_LowPowerMode+0x1c>)
 80009d4:	2205      	movs	r2, #5
 80009d6:	600a      	str	r2, [r1, #0]
 80009d8:	4770      	bx	lr
 80009da:	bf00      	nop
 80009dc:	200011d0 	.word	0x200011d0
 80009e0:	2000092c 	.word	0x2000092c

080009e4 <USB_Interrupts_Config>:
 80009e4:	b510      	push	{r4, lr}
 80009e6:	f44f 60c0 	mov.w	r0, #1536	; 0x600
 80009ea:	b082      	sub	sp, #8
 80009ec:	f00c fc3e 	bl	800d26c <NVIC_PriorityGroupConfig>
 80009f0:	2401      	movs	r4, #1
 80009f2:	a801      	add	r0, sp, #4
 80009f4:	2214      	movs	r2, #20
 80009f6:	f88d 2004 	strb.w	r2, [sp, #4]
 80009fa:	f88d 4005 	strb.w	r4, [sp, #5]
 80009fe:	f88d 4006 	strb.w	r4, [sp, #6]
 8000a02:	f88d 4007 	strb.w	r4, [sp, #7]
 8000a06:	f00c fc3b 	bl	800d280 <NVIC_Init>
 8000a0a:	2113      	movs	r1, #19
 8000a0c:	2300      	movs	r3, #0
 8000a0e:	a801      	add	r0, sp, #4
 8000a10:	f88d 1004 	strb.w	r1, [sp, #4]
 8000a14:	f88d 4005 	strb.w	r4, [sp, #5]
 8000a18:	f88d 3006 	strb.w	r3, [sp, #6]
 8000a1c:	f88d 4007 	strb.w	r4, [sp, #7]
 8000a20:	f00c fc2e 	bl	800d280 <NVIC_Init>
 8000a24:	b002      	add	sp, #8
 8000a26:	bd10      	pop	{r4, pc}

08000a28 <Led_RW_ON>:
 8000a28:	4802      	ldr	r0, [pc, #8]	; (8000a34 <Led_RW_ON+0xc>)
 8000a2a:	f44f 6100 	mov.w	r1, #2048	; 0x800
 8000a2e:	2201      	movs	r2, #1
 8000a30:	f00d b909 	b.w	800dc46 <GPIO_WriteBit>
 8000a34:	40010c00 	.word	0x40010c00

08000a38 <Led_RW_OFF>:
 8000a38:	4802      	ldr	r0, [pc, #8]	; (8000a44 <Led_RW_OFF+0xc>)
 8000a3a:	f44f 6100 	mov.w	r1, #2048	; 0x800
 8000a3e:	2200      	movs	r2, #0
 8000a40:	f00d b901 	b.w	800dc46 <GPIO_WriteBit>
 8000a44:	40010c00 	.word	0x40010c00

08000a48 <USB_Configured_LED>:
 8000a48:	4802      	ldr	r0, [pc, #8]	; (8000a54 <USB_Configured_LED+0xc>)
 8000a4a:	f44f 5180 	mov.w	r1, #4096	; 0x1000
 8000a4e:	2201      	movs	r2, #1
 8000a50:	f00d b8f9 	b.w	800dc46 <GPIO_WriteBit>
 8000a54:	40010c00 	.word	0x40010c00

08000a58 <USB_NotConfigured_LED>:
 8000a58:	4802      	ldr	r0, [pc, #8]	; (8000a64 <USB_NotConfigured_LED+0xc>)
 8000a5a:	f44f 5180 	mov.w	r1, #4096	; 0x1000
 8000a5e:	2200      	movs	r2, #0
 8000a60:	f00d b8f1 	b.w	800dc46 <GPIO_WriteBit>
 8000a64:	40010c00 	.word	0x40010c00

08000a68 <USB_Cable_Config>:
 8000a68:	4770      	bx	lr
 8000a6a:	bf00      	nop

08000a6c <Get_SerialNum>:
 8000a6c:	4a6d      	ldr	r2, [pc, #436]	; (8000c24 <Get_SerialNum+0x1b8>)
 8000a6e:	496e      	ldr	r1, [pc, #440]	; (8000c28 <Get_SerialNum+0x1bc>)
 8000a70:	1d10      	adds	r0, r2, #4
 8000a72:	680b      	ldr	r3, [r1, #0]
 8000a74:	6811      	ldr	r1, [r2, #0]
 8000a76:	6802      	ldr	r2, [r0, #0]
 8000a78:	b410      	push	{r4}
 8000a7a:	18d2      	adds	r2, r2, r3
 8000a7c:	d101      	bne.n	8000a82 <Get_SerialNum+0x16>
 8000a7e:	bc10      	pop	{r4}
 8000a80:	4770      	bx	lr
 8000a82:	0f10      	lsrs	r0, r2, #28
 8000a84:	2809      	cmp	r0, #9
 8000a86:	d967      	bls.n	8000b58 <Get_SerialNum+0xec>
 8000a88:	4b68      	ldr	r3, [pc, #416]	; (8000c2c <Get_SerialNum+0x1c0>)
 8000a8a:	3037      	adds	r0, #55	; 0x37
 8000a8c:	0112      	lsls	r2, r2, #4
 8000a8e:	7098      	strb	r0, [r3, #2]
 8000a90:	0f10      	lsrs	r0, r2, #28
 8000a92:	2400      	movs	r4, #0
 8000a94:	2809      	cmp	r0, #9
 8000a96:	70dc      	strb	r4, [r3, #3]
 8000a98:	4c64      	ldr	r4, [pc, #400]	; (8000c2c <Get_SerialNum+0x1c0>)
 8000a9a:	d967      	bls.n	8000b6c <Get_SerialNum+0x100>
 8000a9c:	3037      	adds	r0, #55	; 0x37
 8000a9e:	0112      	lsls	r2, r2, #4
 8000aa0:	7120      	strb	r0, [r4, #4]
 8000aa2:	0f10      	lsrs	r0, r2, #28
 8000aa4:	2400      	movs	r4, #0
 8000aa6:	2809      	cmp	r0, #9
 8000aa8:	715c      	strb	r4, [r3, #5]
 8000aaa:	4c60      	ldr	r4, [pc, #384]	; (8000c2c <Get_SerialNum+0x1c0>)
 8000aac:	d967      	bls.n	8000b7e <Get_SerialNum+0x112>
 8000aae:	3037      	adds	r0, #55	; 0x37
 8000ab0:	0112      	lsls	r2, r2, #4
 8000ab2:	71a0      	strb	r0, [r4, #6]
 8000ab4:	0f10      	lsrs	r0, r2, #28
 8000ab6:	2400      	movs	r4, #0
 8000ab8:	2809      	cmp	r0, #9
 8000aba:	71dc      	strb	r4, [r3, #7]
 8000abc:	4c5b      	ldr	r4, [pc, #364]	; (8000c2c <Get_SerialNum+0x1c0>)
 8000abe:	d967      	bls.n	8000b90 <Get_SerialNum+0x124>
 8000ac0:	3037      	adds	r0, #55	; 0x37
 8000ac2:	0112      	lsls	r2, r2, #4
 8000ac4:	7220      	strb	r0, [r4, #8]
 8000ac6:	0f10      	lsrs	r0, r2, #28
 8000ac8:	2400      	movs	r4, #0
 8000aca:	2809      	cmp	r0, #9
 8000acc:	725c      	strb	r4, [r3, #9]
 8000ace:	4c57      	ldr	r4, [pc, #348]	; (8000c2c <Get_SerialNum+0x1c0>)
 8000ad0:	d967      	bls.n	8000ba2 <Get_SerialNum+0x136>
 8000ad2:	3037      	adds	r0, #55	; 0x37
 8000ad4:	0112      	lsls	r2, r2, #4
 8000ad6:	72a0      	strb	r0, [r4, #10]
 8000ad8:	0f10      	lsrs	r0, r2, #28
 8000ada:	2400      	movs	r4, #0
 8000adc:	2809      	cmp	r0, #9
 8000ade:	72dc      	strb	r4, [r3, #11]
 8000ae0:	4c52      	ldr	r4, [pc, #328]	; (8000c2c <Get_SerialNum+0x1c0>)
 8000ae2:	d967      	bls.n	8000bb4 <Get_SerialNum+0x148>
 8000ae4:	3037      	adds	r0, #55	; 0x37
 8000ae6:	0112      	lsls	r2, r2, #4
 8000ae8:	7320      	strb	r0, [r4, #12]
 8000aea:	0f10      	lsrs	r0, r2, #28
 8000aec:	2400      	movs	r4, #0
 8000aee:	2809      	cmp	r0, #9
 8000af0:	735c      	strb	r4, [r3, #13]
 8000af2:	4c4e      	ldr	r4, [pc, #312]	; (8000c2c <Get_SerialNum+0x1c0>)
 8000af4:	d967      	bls.n	8000bc6 <Get_SerialNum+0x15a>
 8000af6:	3037      	adds	r0, #55	; 0x37
 8000af8:	f3c2 6203 	ubfx	r2, r2, #24, #4
 8000afc:	73a0      	strb	r0, [r4, #14]
 8000afe:	2000      	movs	r0, #0
 8000b00:	2a09      	cmp	r2, #9
 8000b02:	73d8      	strb	r0, [r3, #15]
 8000b04:	4849      	ldr	r0, [pc, #292]	; (8000c2c <Get_SerialNum+0x1c0>)
 8000b06:	d867      	bhi.n	8000bd8 <Get_SerialNum+0x16c>
 8000b08:	3230      	adds	r2, #48	; 0x30
 8000b0a:	7402      	strb	r2, [r0, #16]
 8000b0c:	0f0a      	lsrs	r2, r1, #28
 8000b0e:	2000      	movs	r0, #0
 8000b10:	2a09      	cmp	r2, #9
 8000b12:	7458      	strb	r0, [r3, #17]
 8000b14:	4845      	ldr	r0, [pc, #276]	; (8000c2c <Get_SerialNum+0x1c0>)
 8000b16:	d967      	bls.n	8000be8 <Get_SerialNum+0x17c>
 8000b18:	3237      	adds	r2, #55	; 0x37
 8000b1a:	0109      	lsls	r1, r1, #4
 8000b1c:	7482      	strb	r2, [r0, #18]
 8000b1e:	0f0a      	lsrs	r2, r1, #28
 8000b20:	2000      	movs	r0, #0
 8000b22:	2a09      	cmp	r2, #9
 8000b24:	74d8      	strb	r0, [r3, #19]
 8000b26:	4841      	ldr	r0, [pc, #260]	; (8000c2c <Get_SerialNum+0x1c0>)
 8000b28:	d967      	bls.n	8000bfa <Get_SerialNum+0x18e>
 8000b2a:	3237      	adds	r2, #55	; 0x37
 8000b2c:	0109      	lsls	r1, r1, #4
 8000b2e:	7502      	strb	r2, [r0, #20]
 8000b30:	0f0a      	lsrs	r2, r1, #28
 8000b32:	2000      	movs	r0, #0
 8000b34:	2a09      	cmp	r2, #9
 8000b36:	7558      	strb	r0, [r3, #21]
 8000b38:	483c      	ldr	r0, [pc, #240]	; (8000c2c <Get_SerialNum+0x1c0>)
 8000b3a:	d967      	bls.n	8000c0c <Get_SerialNum+0x1a0>
 8000b3c:	3237      	adds	r2, #55	; 0x37
 8000b3e:	f3c1 6103 	ubfx	r1, r1, #24, #4
 8000b42:	7582      	strb	r2, [r0, #22]
 8000b44:	2200      	movs	r2, #0
 8000b46:	2909      	cmp	r1, #9
 8000b48:	75da      	strb	r2, [r3, #23]
 8000b4a:	4a38      	ldr	r2, [pc, #224]	; (8000c2c <Get_SerialNum+0x1c0>)
 8000b4c:	d867      	bhi.n	8000c1e <Get_SerialNum+0x1b2>
 8000b4e:	3130      	adds	r1, #48	; 0x30
 8000b50:	7611      	strb	r1, [r2, #24]
 8000b52:	2100      	movs	r1, #0
 8000b54:	7659      	strb	r1, [r3, #25]
 8000b56:	e792      	b.n	8000a7e <Get_SerialNum+0x12>
 8000b58:	4b34      	ldr	r3, [pc, #208]	; (8000c2c <Get_SerialNum+0x1c0>)
 8000b5a:	3030      	adds	r0, #48	; 0x30
 8000b5c:	0112      	lsls	r2, r2, #4
 8000b5e:	7098      	strb	r0, [r3, #2]
 8000b60:	0f10      	lsrs	r0, r2, #28
 8000b62:	2400      	movs	r4, #0
 8000b64:	2809      	cmp	r0, #9
 8000b66:	70dc      	strb	r4, [r3, #3]
 8000b68:	4c30      	ldr	r4, [pc, #192]	; (8000c2c <Get_SerialNum+0x1c0>)
 8000b6a:	d897      	bhi.n	8000a9c <Get_SerialNum+0x30>
 8000b6c:	3030      	adds	r0, #48	; 0x30
 8000b6e:	0112      	lsls	r2, r2, #4
 8000b70:	7120      	strb	r0, [r4, #4]
 8000b72:	0f10      	lsrs	r0, r2, #28
 8000b74:	2400      	movs	r4, #0
 8000b76:	2809      	cmp	r0, #9
 8000b78:	715c      	strb	r4, [r3, #5]
 8000b7a:	4c2c      	ldr	r4, [pc, #176]	; (8000c2c <Get_SerialNum+0x1c0>)
 8000b7c:	d897      	bhi.n	8000aae <Get_SerialNum+0x42>
 8000b7e:	3030      	adds	r0, #48	; 0x30
 8000b80:	0112      	lsls	r2, r2, #4
 8000b82:	71a0      	strb	r0, [r4, #6]
 8000b84:	0f10      	lsrs	r0, r2, #28
 8000b86:	2400      	movs	r4, #0
 8000b88:	2809      	cmp	r0, #9
 8000b8a:	71dc      	strb	r4, [r3, #7]
 8000b8c:	4c27      	ldr	r4, [pc, #156]	; (8000c2c <Get_SerialNum+0x1c0>)
 8000b8e:	d897      	bhi.n	8000ac0 <Get_SerialNum+0x54>
 8000b90:	3030      	adds	r0, #48	; 0x30
 8000b92:	0112      	lsls	r2, r2, #4
 8000b94:	7220      	strb	r0, [r4, #8]
 8000b96:	0f10      	lsrs	r0, r2, #28
 8000b98:	2400      	movs	r4, #0
 8000b9a:	2809      	cmp	r0, #9
 8000b9c:	725c      	strb	r4, [r3, #9]
 8000b9e:	4c23      	ldr	r4, [pc, #140]	; (8000c2c <Get_SerialNum+0x1c0>)
 8000ba0:	d897      	bhi.n	8000ad2 <Get_SerialNum+0x66>
 8000ba2:	3030      	adds	r0, #48	; 0x30
 8000ba4:	0112      	lsls	r2, r2, #4
 8000ba6:	72a0      	strb	r0, [r4, #10]
 8000ba8:	0f10      	lsrs	r0, r2, #28
 8000baa:	2400      	movs	r4, #0
 8000bac:	2809      	cmp	r0, #9
 8000bae:	72dc      	strb	r4, [r3, #11]
 8000bb0:	4c1e      	ldr	r4, [pc, #120]	; (8000c2c <Get_SerialNum+0x1c0>)
 8000bb2:	d897      	bhi.n	8000ae4 <Get_SerialNum+0x78>
 8000bb4:	3030      	adds	r0, #48	; 0x30
 8000bb6:	0112      	lsls	r2, r2, #4
 8000bb8:	7320      	strb	r0, [r4, #12]
 8000bba:	0f10      	lsrs	r0, r2, #28
 8000bbc:	2400      	movs	r4, #0
 8000bbe:	2809      	cmp	r0, #9
 8000bc0:	735c      	strb	r4, [r3, #13]
 8000bc2:	4c1a      	ldr	r4, [pc, #104]	; (8000c2c <Get_SerialNum+0x1c0>)
 8000bc4:	d897      	bhi.n	8000af6 <Get_SerialNum+0x8a>
 8000bc6:	3030      	adds	r0, #48	; 0x30
 8000bc8:	f3c2 6203 	ubfx	r2, r2, #24, #4
 8000bcc:	73a0      	strb	r0, [r4, #14]
 8000bce:	2000      	movs	r0, #0
 8000bd0:	2a09      	cmp	r2, #9
 8000bd2:	73d8      	strb	r0, [r3, #15]
 8000bd4:	4815      	ldr	r0, [pc, #84]	; (8000c2c <Get_SerialNum+0x1c0>)
 8000bd6:	d997      	bls.n	8000b08 <Get_SerialNum+0x9c>
 8000bd8:	3237      	adds	r2, #55	; 0x37
 8000bda:	7402      	strb	r2, [r0, #16]
 8000bdc:	0f0a      	lsrs	r2, r1, #28
 8000bde:	2000      	movs	r0, #0
 8000be0:	2a09      	cmp	r2, #9
 8000be2:	7458      	strb	r0, [r3, #17]
 8000be4:	4811      	ldr	r0, [pc, #68]	; (8000c2c <Get_SerialNum+0x1c0>)
 8000be6:	d897      	bhi.n	8000b18 <Get_SerialNum+0xac>
 8000be8:	3230      	adds	r2, #48	; 0x30
 8000bea:	0109      	lsls	r1, r1, #4
 8000bec:	7482      	strb	r2, [r0, #18]
 8000bee:	0f0a      	lsrs	r2, r1, #28
 8000bf0:	2000      	movs	r0, #0
 8000bf2:	2a09      	cmp	r2, #9
 8000bf4:	74d8      	strb	r0, [r3, #19]
 8000bf6:	480d      	ldr	r0, [pc, #52]	; (8000c2c <Get_SerialNum+0x1c0>)
 8000bf8:	d897      	bhi.n	8000b2a <Get_SerialNum+0xbe>
 8000bfa:	3230      	adds	r2, #48	; 0x30
 8000bfc:	0109      	lsls	r1, r1, #4
 8000bfe:	7502      	strb	r2, [r0, #20]
 8000c00:	0f0a      	lsrs	r2, r1, #28
 8000c02:	2000      	movs	r0, #0
 8000c04:	2a09      	cmp	r2, #9
 8000c06:	7558      	strb	r0, [r3, #21]
 8000c08:	4808      	ldr	r0, [pc, #32]	; (8000c2c <Get_SerialNum+0x1c0>)
 8000c0a:	d897      	bhi.n	8000b3c <Get_SerialNum+0xd0>
 8000c0c:	3230      	adds	r2, #48	; 0x30
 8000c0e:	f3c1 6103 	ubfx	r1, r1, #24, #4
 8000c12:	7582      	strb	r2, [r0, #22]
 8000c14:	2200      	movs	r2, #0
 8000c16:	2909      	cmp	r1, #9
 8000c18:	75da      	strb	r2, [r3, #23]
 8000c1a:	4a04      	ldr	r2, [pc, #16]	; (8000c2c <Get_SerialNum+0x1c0>)
 8000c1c:	d997      	bls.n	8000b4e <Get_SerialNum+0xe2>
 8000c1e:	3137      	adds	r1, #55	; 0x37
 8000c20:	7611      	strb	r1, [r2, #24]
 8000c22:	e796      	b.n	8000b52 <Get_SerialNum+0xe6>
 8000c24:	1ffff7ec 	.word	0x1ffff7ec
 8000c28:	1ffff7e8 	.word	0x1ffff7e8
 8000c2c:	20000078 	.word	0x20000078

08000c30 <MAL_Config>:
 8000c30:	2000      	movs	r0, #0
 8000c32:	f000 b801 	b.w	8000c38 <MAL_Init>
 8000c36:	bf00      	nop

08000c38 <MAL_Init>:
 8000c38:	b538      	push	{r3, r4, r5, lr}
 8000c3a:	4605      	mov	r5, r0
 8000c3c:	b948      	cbnz	r0, 8000c52 <MAL_Init+0x1a>
 8000c3e:	f008 fa65 	bl	800910c <disk_initialize>
 8000c42:	4c0d      	ldr	r4, [pc, #52]	; (8000c78 <MAL_Init+0x40>)
 8000c44:	6020      	str	r0, [r4, #0]
 8000c46:	6823      	ldr	r3, [r4, #0]
 8000c48:	b92b      	cbnz	r3, 8000c56 <MAL_Init+0x1e>
 8000c4a:	6824      	ldr	r4, [r4, #0]
 8000c4c:	b154      	cbz	r4, 8000c64 <MAL_Init+0x2c>
 8000c4e:	2000      	movs	r0, #0
 8000c50:	bd38      	pop	{r3, r4, r5, pc}
 8000c52:	2001      	movs	r0, #1
 8000c54:	bd38      	pop	{r3, r4, r5, pc}
 8000c56:	4628      	mov	r0, r5
 8000c58:	f008 fa58 	bl	800910c <disk_initialize>
 8000c5c:	6020      	str	r0, [r4, #0]
 8000c5e:	6824      	ldr	r4, [r4, #0]
 8000c60:	2c00      	cmp	r4, #0
 8000c62:	d1f4      	bne.n	8000c4e <MAL_Init+0x16>
 8000c64:	f44f 50a0 	mov.w	r0, #5120	; 0x1400
 8000c68:	f012 fac8 	bl	80131fc <malloc>
 8000c6c:	4903      	ldr	r1, [pc, #12]	; (8000c7c <MAL_Init+0x44>)
 8000c6e:	4602      	mov	r2, r0
 8000c70:	600a      	str	r2, [r1, #0]
 8000c72:	4620      	mov	r0, r4
 8000c74:	bd38      	pop	{r3, r4, r5, pc}
 8000c76:	bf00      	nop
 8000c78:	200006f0 	.word	0x200006f0
 8000c7c:	20000c8c 	.word	0x20000c8c

08000c80 <MAL_Write>:
 8000c80:	b530      	push	{r4, r5, lr}
 8000c82:	b083      	sub	sp, #12
 8000c84:	9201      	str	r2, [sp, #4]
 8000c86:	4604      	mov	r4, r0
 8000c88:	b960      	cbnz	r0, 8000ca4 <MAL_Write+0x24>
 8000c8a:	9d01      	ldr	r5, [sp, #4]
 8000c8c:	0a4a      	lsrs	r2, r1, #9
 8000c8e:	f3c3 2347 	ubfx	r3, r3, #9, #8
 8000c92:	4629      	mov	r1, r5
 8000c94:	f008 fc0c 	bl	80094b0 <disk_write>
 8000c98:	4b03      	ldr	r3, [pc, #12]	; (8000ca8 <MAL_Write+0x28>)
 8000c9a:	4602      	mov	r2, r0
 8000c9c:	601a      	str	r2, [r3, #0]
 8000c9e:	4620      	mov	r0, r4
 8000ca0:	b003      	add	sp, #12
 8000ca2:	bd30      	pop	{r4, r5, pc}
 8000ca4:	2001      	movs	r0, #1
 8000ca6:	e7fb      	b.n	8000ca0 <MAL_Write+0x20>
 8000ca8:	200006f0 	.word	0x200006f0

08000cac <MAL_Read>:
 8000cac:	b530      	push	{r4, r5, lr}
 8000cae:	b083      	sub	sp, #12
 8000cb0:	9201      	str	r2, [sp, #4]
 8000cb2:	4604      	mov	r4, r0
 8000cb4:	b960      	cbnz	r0, 8000cd0 <MAL_Read+0x24>
 8000cb6:	9d01      	ldr	r5, [sp, #4]
 8000cb8:	0a4a      	lsrs	r2, r1, #9
 8000cba:	f3c3 2347 	ubfx	r3, r3, #9, #8
 8000cbe:	4629      	mov	r1, r5
 8000cc0:	f008 fb02 	bl	80092c8 <disk_read>
 8000cc4:	4b03      	ldr	r3, [pc, #12]	; (8000cd4 <MAL_Read+0x28>)
 8000cc6:	4602      	mov	r2, r0
 8000cc8:	601a      	str	r2, [r3, #0]
 8000cca:	4620      	mov	r0, r4
 8000ccc:	b003      	add	sp, #12
 8000cce:	bd30      	pop	{r4, r5, pc}
 8000cd0:	2001      	movs	r0, #1
 8000cd2:	e7fb      	b.n	8000ccc <MAL_Read+0x20>
 8000cd4:	200006f0 	.word	0x200006f0

08000cd8 <MAL_GetStatus>:
 8000cd8:	b570      	push	{r4, r5, r6, lr}
 8000cda:	b9c8      	cbnz	r0, 8000d10 <MAL_GetStatus+0x38>
 8000cdc:	4b10      	ldr	r3, [pc, #64]	; (8000d20 <MAL_GetStatus+0x48>)
 8000cde:	781c      	ldrb	r4, [r3, #0]
 8000ce0:	2c00      	cmp	r4, #0
 8000ce2:	d1fc      	bne.n	8000cde <MAL_GetStatus+0x6>
 8000ce4:	4e0f      	ldr	r6, [pc, #60]	; (8000d24 <MAL_GetStatus+0x4c>)
 8000ce6:	2101      	movs	r1, #1
 8000ce8:	4632      	mov	r2, r6
 8000cea:	4620      	mov	r0, r4
 8000cec:	f008 fcb0 	bl	8009650 <disk_ioctl>
 8000cf0:	4b0d      	ldr	r3, [pc, #52]	; (8000d28 <MAL_GetStatus+0x50>)
 8000cf2:	6835      	ldr	r5, [r6, #0]
 8000cf4:	f44f 7600 	mov.w	r6, #512	; 0x200
 8000cf8:	601e      	str	r6, [r3, #0]
 8000cfa:	4b0c      	ldr	r3, [pc, #48]	; (8000d2c <MAL_GetStatus+0x54>)
 8000cfc:	026d      	lsls	r5, r5, #9
 8000cfe:	480c      	ldr	r0, [pc, #48]	; (8000d30 <MAL_GetStatus+0x58>)
 8000d00:	f44f 6100 	mov.w	r1, #2048	; 0x800
 8000d04:	2201      	movs	r2, #1
 8000d06:	601d      	str	r5, [r3, #0]
 8000d08:	f00c ff9d 	bl	800dc46 <GPIO_WriteBit>
 8000d0c:	4620      	mov	r0, r4
 8000d0e:	bd70      	pop	{r4, r5, r6, pc}
 8000d10:	4807      	ldr	r0, [pc, #28]	; (8000d30 <MAL_GetStatus+0x58>)
 8000d12:	f44f 6100 	mov.w	r1, #2048	; 0x800
 8000d16:	2200      	movs	r2, #0
 8000d18:	f00c ff95 	bl	800dc46 <GPIO_WriteBit>
 8000d1c:	2001      	movs	r0, #1
 8000d1e:	bd70      	pop	{r4, r5, r6, pc}
 8000d20:	20000d1a 	.word	0x20000d1a
 8000d24:	20000c84 	.word	0x20000c84
 8000d28:	20000c7c 	.word	0x20000c7c
 8000d2c:	20000c74 	.word	0x20000c74
 8000d30:	40010c00 	.word	0x40010c00

08000d34 <Read_Memory>:
 8000d34:	e92d 47f0 	stmdb	sp!, {r4, r5, r6, r7, r8, r9, sl, lr}
 8000d38:	4c60      	ldr	r4, [pc, #384]	; (8000ebc <Read_Memory+0x188>)
 8000d3a:	4606      	mov	r6, r0
 8000d3c:	7825      	ldrb	r5, [r4, #0]
 8000d3e:	4613      	mov	r3, r2
 8000d40:	2d00      	cmp	r5, #0
 8000d42:	d049      	beq.n	8000dd8 <Read_Memory+0xa4>
 8000d44:	2d01      	cmp	r5, #1
 8000d46:	d015      	beq.n	8000d74 <Read_Memory+0x40>
 8000d48:	6865      	ldr	r5, [r4, #4]
 8000d4a:	2201      	movs	r2, #1
 8000d4c:	2300      	movs	r3, #0
 8000d4e:	f884 220e 	strb.w	r2, [r4, #526]	; 0x20e
 8000d52:	4a5a      	ldr	r2, [pc, #360]	; (8000ebc <Read_Memory+0x188>)
 8000d54:	f884 320e 	strb.w	r3, [r4, #526]	; 0x20e
 8000d58:	b955      	cbnz	r5, 8000d70 <Read_Memory+0x3c>
 8000d5a:	4959      	ldr	r1, [pc, #356]	; (8000ec0 <Read_Memory+0x18c>)
 8000d5c:	4b59      	ldr	r3, [pc, #356]	; (8000ec4 <Read_Memory+0x190>)
 8000d5e:	2003      	movs	r0, #3
 8000d60:	600d      	str	r5, [r1, #0]
 8000d62:	6095      	str	r5, [r2, #8]
 8000d64:	7018      	strb	r0, [r3, #0]
 8000d66:	7015      	strb	r5, [r2, #0]
 8000d68:	f7ff fe66 	bl	8000a38 <Led_RW_OFF>
 8000d6c:	4956      	ldr	r1, [pc, #344]	; (8000ec8 <Read_Memory+0x194>)
 8000d6e:	700d      	strb	r5, [r1, #0]
 8000d70:	e8bd 87f0 	ldmia.w	sp!, {r4, r5, r6, r7, r8, r9, sl, pc}
 8000d74:	4855      	ldr	r0, [pc, #340]	; (8000ecc <Read_Memory+0x198>)
 8000d76:	f00c fddd 	bl	800d934 <DMA_GetCurrDataCounter>
 8000d7a:	28c7      	cmp	r0, #199	; 0xc7
 8000d7c:	d9fa      	bls.n	8000d74 <Read_Memory+0x40>
 8000d7e:	4d50      	ldr	r5, [pc, #320]	; (8000ec0 <Read_Memory+0x18c>)
 8000d80:	4852      	ldr	r0, [pc, #328]	; (8000ecc <Read_Memory+0x198>)
 8000d82:	f00c fdd7 	bl	800d934 <DMA_GetCurrDataCounter>
 8000d86:	682b      	ldr	r3, [r5, #0]
 8000d88:	4a4d      	ldr	r2, [pc, #308]	; (8000ec0 <Read_Memory+0x18c>)
 8000d8a:	f5c3 71e0 	rsb	r1, r3, #448	; 0x1c0
 8000d8e:	4288      	cmp	r0, r1
 8000d90:	d8f6      	bhi.n	8000d80 <Read_Memory+0x4c>
 8000d92:	6811      	ldr	r1, [r2, #0]
 8000d94:	3140      	adds	r1, #64	; 0x40
 8000d96:	6011      	str	r1, [r2, #0]
 8000d98:	6810      	ldr	r0, [r2, #0]
 8000d9a:	f5b0 7f00 	cmp.w	r0, #512	; 0x200
 8000d9e:	d039      	beq.n	8000e14 <Read_Memory+0xe0>
 8000da0:	6813      	ldr	r3, [r2, #0]
 8000da2:	4d4b      	ldr	r5, [pc, #300]	; (8000ed0 <Read_Memory+0x19c>)
 8000da4:	2081      	movs	r0, #129	; 0x81
 8000da6:	18e9      	adds	r1, r5, r3
 8000da8:	2240      	movs	r2, #64	; 0x40
 8000daa:	f010 f809 	bl	8010dc0 <USB_SIL_Write>
 8000dae:	2001      	movs	r0, #1
 8000db0:	2140      	movs	r1, #64	; 0x40
 8000db2:	4d48      	ldr	r5, [pc, #288]	; (8000ed4 <Read_Memory+0x1a0>)
 8000db4:	f00f fde4 	bl	8010980 <SetEPTxCount>
 8000db8:	2001      	movs	r0, #1
 8000dba:	2130      	movs	r1, #48	; 0x30
 8000dbc:	f00f fc12 	bl	80105e4 <SetEPTxStatus>
 8000dc0:	68aa      	ldr	r2, [r5, #8]
 8000dc2:	6860      	ldr	r0, [r4, #4]
 8000dc4:	68a1      	ldr	r1, [r4, #8]
 8000dc6:	3a40      	subs	r2, #64	; 0x40
 8000dc8:	3840      	subs	r0, #64	; 0x40
 8000dca:	3140      	adds	r1, #64	; 0x40
 8000dcc:	60aa      	str	r2, [r5, #8]
 8000dce:	6060      	str	r0, [r4, #4]
 8000dd0:	60a1      	str	r1, [r4, #8]
 8000dd2:	f7ff fe29 	bl	8000a28 <Led_RW_ON>
 8000dd6:	e7b7      	b.n	8000d48 <Read_Memory+0x14>
 8000dd8:	4f3f      	ldr	r7, [pc, #252]	; (8000ed8 <Read_Memory+0x1a4>)
 8000dda:	4622      	mov	r2, r4
 8000ddc:	f857 c020 	ldr.w	ip, [r7, r0, lsl #2]
 8000de0:	2701      	movs	r7, #1
 8000de2:	fb01 fe0c 	mul.w	lr, r1, ip
 8000de6:	fb0c fc03 	mul.w	ip, ip, r3
 8000dea:	4671      	mov	r1, lr
 8000dec:	f8c4 e008 	str.w	lr, [r4, #8]
 8000df0:	f8df e0d4 	ldr.w	lr, [pc, #212]	; 8000ec8 <Read_Memory+0x194>
 8000df4:	f44f 7300 	mov.w	r3, #512	; 0x200
 8000df8:	f802 7b0c 	strb.w	r7, [r2], #12
 8000dfc:	f88e 7000 	strb.w	r7, [lr]
 8000e00:	f8c4 c004 	str.w	ip, [r4, #4]
 8000e04:	f7ff ff52 	bl	8000cac <MAL_Read>
 8000e08:	f00b f94e 	bl	800c0a8 <DMA_ISR_Config_SPI2>
 8000e0c:	4b2c      	ldr	r3, [pc, #176]	; (8000ec0 <Read_Memory+0x18c>)
 8000e0e:	601d      	str	r5, [r3, #0]
 8000e10:	7825      	ldrb	r5, [r4, #0]
 8000e12:	e797      	b.n	8000d44 <Read_Memory+0x10>
 8000e14:	7b27      	ldrb	r7, [r4, #12]
 8000e16:	f240 2201 	movw	r2, #513	; 0x201
 8000e1a:	f240 2902 	movw	r9, #514	; 0x202
 8000e1e:	bb57      	cbnz	r7, 8000e76 <Read_Memory+0x142>
 8000e20:	7b63      	ldrb	r3, [r4, #13]
 8000e22:	bb43      	cbnz	r3, 8000e76 <Read_Memory+0x142>
 8000e24:	3302      	adds	r3, #2
 8000e26:	e016      	b.n	8000e56 <Read_Memory+0x122>
 8000e28:	4293      	cmp	r3, r2
 8000e2a:	f103 0304 	add.w	r3, r3, #4
 8000e2e:	d044      	beq.n	8000eba <Read_Memory+0x186>
 8000e30:	f898 800c 	ldrb.w	r8, [r8, #12]
 8000e34:	f1b8 0f00 	cmp.w	r8, #0
 8000e38:	d11d      	bne.n	8000e76 <Read_Memory+0x142>
 8000e3a:	4291      	cmp	r1, r2
 8000e3c:	d03d      	beq.n	8000eba <Read_Memory+0x186>
 8000e3e:	f89c 100c 	ldrb.w	r1, [ip, #12]
 8000e42:	b9c1      	cbnz	r1, 8000e76 <Read_Memory+0x142>
 8000e44:	4297      	cmp	r7, r2
 8000e46:	d038      	beq.n	8000eba <Read_Memory+0x186>
 8000e48:	f89e 700c 	ldrb.w	r7, [lr, #12]
 8000e4c:	b99f      	cbnz	r7, 8000e76 <Read_Memory+0x142>
 8000e4e:	4290      	cmp	r0, r2
 8000e50:	d033      	beq.n	8000eba <Read_Memory+0x186>
 8000e52:	454b      	cmp	r3, r9
 8000e54:	d00f      	beq.n	8000e76 <Read_Memory+0x142>
 8000e56:	eb04 0a03 	add.w	sl, r4, r3
 8000e5a:	1c59      	adds	r1, r3, #1
 8000e5c:	f89a a00c 	ldrb.w	sl, [sl, #12]
 8000e60:	1c4f      	adds	r7, r1, #1
 8000e62:	1cd8      	adds	r0, r3, #3
 8000e64:	eb04 0801 	add.w	r8, r4, r1
 8000e68:	eb04 0c07 	add.w	ip, r4, r7
 8000e6c:	eb04 0e00 	add.w	lr, r4, r0
 8000e70:	f1ba 0f00 	cmp.w	sl, #0
 8000e74:	d0d8      	beq.n	8000e28 <Read_Memory+0xf4>
 8000e76:	682b      	ldr	r3, [r5, #0]
 8000e78:	f8df 8040 	ldr.w	r8, [pc, #64]	; 8000ebc <Read_Memory+0x188>
 8000e7c:	3b40      	subs	r3, #64	; 0x40
 8000e7e:	f108 070c 	add.w	r7, r8, #12
 8000e82:	2240      	movs	r2, #64	; 0x40
 8000e84:	2081      	movs	r0, #129	; 0x81
 8000e86:	18f9      	adds	r1, r7, r3
 8000e88:	f00f ff9a 	bl	8010dc0 <USB_SIL_Write>
 8000e8c:	6862      	ldr	r2, [r4, #4]
 8000e8e:	2a40      	cmp	r2, #64	; 0x40
 8000e90:	d802      	bhi.n	8000e98 <Read_Memory+0x164>
 8000e92:	2200      	movs	r2, #0
 8000e94:	602a      	str	r2, [r5, #0]
 8000e96:	e78a      	b.n	8000dae <Read_Memory+0x7a>
 8000e98:	490b      	ldr	r1, [pc, #44]	; (8000ec8 <Read_Memory+0x194>)
 8000e9a:	2001      	movs	r0, #1
 8000e9c:	7008      	strb	r0, [r1, #0]
 8000e9e:	b672      	cpsid	i
 8000ea0:	f8d8 1008 	ldr.w	r1, [r8, #8]
 8000ea4:	463a      	mov	r2, r7
 8000ea6:	3140      	adds	r1, #64	; 0x40
 8000ea8:	f44f 7300 	mov.w	r3, #512	; 0x200
 8000eac:	4630      	mov	r0, r6
 8000eae:	f7ff fefd 	bl	8000cac <MAL_Read>
 8000eb2:	f00b f8f9 	bl	800c0a8 <DMA_ISR_Config_SPI2>
 8000eb6:	b662      	cpsie	i
 8000eb8:	e7eb      	b.n	8000e92 <Read_Memory+0x15e>
 8000eba:	e7fe      	b.n	8000eba <Read_Memory+0x186>
 8000ebc:	200006f4 	.word	0x200006f4
 8000ec0:	20000c90 	.word	0x20000c90
 8000ec4:	20000cba 	.word	0x20000cba
 8000ec8:	20000d1a 	.word	0x20000d1a
 8000ecc:	40020044 	.word	0x40020044
 8000ed0:	200006c0 	.word	0x200006c0
 8000ed4:	20000cc0 	.word	0x20000cc0
 8000ed8:	20000c7c 	.word	0x20000c7c

08000edc <Write_Memory>:
 8000edc:	e92d 41f0 	stmdb	sp!, {r4, r5, r6, r7, r8, lr}
 8000ee0:	4c3e      	ldr	r4, [pc, #248]	; (8000fdc <Write_Memory+0x100>)
 8000ee2:	7823      	ldrb	r3, [r4, #0]
 8000ee4:	f8d4 5210 	ldr.w	r5, [r4, #528]	; 0x210
 8000ee8:	2b00      	cmp	r3, #0
 8000eea:	d167      	bne.n	8000fbc <Write_Memory+0xe0>
 8000eec:	4f3c      	ldr	r7, [pc, #240]	; (8000fe0 <Write_Memory+0x104>)
 8000eee:	2601      	movs	r6, #1
 8000ef0:	f857 3020 	ldr.w	r3, [r7, r0, lsl #2]
 8000ef4:	7026      	strb	r6, [r4, #0]
 8000ef6:	fb03 f202 	mul.w	r2, r3, r2
 8000efa:	fb01 f103 	mul.w	r1, r1, r3
 8000efe:	f8c4 2218 	str.w	r2, [r4, #536]	; 0x218
 8000f02:	4a38      	ldr	r2, [pc, #224]	; (8000fe4 <Write_Memory+0x108>)
 8000f04:	f8c4 1214 	str.w	r1, [r4, #532]	; 0x214
 8000f08:	7813      	ldrb	r3, [r2, #0]
 8000f0a:	2b00      	cmp	r3, #0
 8000f0c:	d1fc      	bne.n	8000f08 <Write_Memory+0x2c>
 8000f0e:	f8d4 2210 	ldr.w	r2, [r4, #528]	; 0x210
 8000f12:	4f35      	ldr	r7, [pc, #212]	; (8000fe8 <Write_Memory+0x10c>)
 8000f14:	3540      	adds	r5, #64	; 0x40
 8000f16:	4295      	cmp	r5, r2
 8000f18:	603b      	str	r3, [r7, #0]
 8000f1a:	d915      	bls.n	8000f48 <Write_Memory+0x6c>
 8000f1c:	f8df c0d0 	ldr.w	ip, [pc, #208]	; 8000ff0 <Write_Memory+0x114>
 8000f20:	f8df e0d8 	ldr.w	lr, [pc, #216]	; 8000ffc <Write_Memory+0x120>
 8000f24:	f8dc 1000 	ldr.w	r1, [ip]
 8000f28:	f81e 6003 	ldrb.w	r6, [lr, r3]
 8000f2c:	f8d4 2210 	ldr.w	r2, [r4, #528]	; 0x210
 8000f30:	3301      	adds	r3, #1
 8000f32:	548e      	strb	r6, [r1, r2]
 8000f34:	f8d4 2210 	ldr.w	r2, [r4, #528]	; 0x210
 8000f38:	603b      	str	r3, [r7, #0]
 8000f3a:	1c56      	adds	r6, r2, #1
 8000f3c:	f8c4 6210 	str.w	r6, [r4, #528]	; 0x210
 8000f40:	f8d4 1210 	ldr.w	r1, [r4, #528]	; 0x210
 8000f44:	428d      	cmp	r5, r1
 8000f46:	d8ed      	bhi.n	8000f24 <Write_Memory+0x48>
 8000f48:	4d28      	ldr	r5, [pc, #160]	; (8000fec <Write_Memory+0x110>)
 8000f4a:	f8d4 1214 	ldr.w	r1, [r4, #532]	; 0x214
 8000f4e:	882b      	ldrh	r3, [r5, #0]
 8000f50:	f8d4 2218 	ldr.w	r2, [r4, #536]	; 0x218
 8000f54:	f8d4 6210 	ldr.w	r6, [r4, #528]	; 0x210
 8000f58:	1859      	adds	r1, r3, r1
 8000f5a:	1ad2      	subs	r2, r2, r3
 8000f5c:	f5b6 5fa0 	cmp.w	r6, #5120	; 0x1400
 8000f60:	f8c4 1214 	str.w	r1, [r4, #532]	; 0x214
 8000f64:	f8c4 2218 	str.w	r2, [r4, #536]	; 0x218
 8000f68:	d200      	bcs.n	8000f6c <Write_Memory+0x90>
 8000f6a:	b96a      	cbnz	r2, 8000f88 <Write_Memory+0xac>
 8000f6c:	4e20      	ldr	r6, [pc, #128]	; (8000ff0 <Write_Memory+0x114>)
 8000f6e:	4b1c      	ldr	r3, [pc, #112]	; (8000fe0 <Write_Memory+0x104>)
 8000f70:	6832      	ldr	r2, [r6, #0]
 8000f72:	f853 6020 	ldr.w	r6, [r3, r0, lsl #2]
 8000f76:	f8d4 3210 	ldr.w	r3, [r4, #528]	; 0x210
 8000f7a:	1b89      	subs	r1, r1, r6
 8000f7c:	f7ff fe80 	bl	8000c80 <MAL_Write>
 8000f80:	2000      	movs	r0, #0
 8000f82:	882b      	ldrh	r3, [r5, #0]
 8000f84:	f8c4 0210 	str.w	r0, [r4, #528]	; 0x210
 8000f88:	4a1a      	ldr	r2, [pc, #104]	; (8000ff4 <Write_Memory+0x118>)
 8000f8a:	f44f 5140 	mov.w	r1, #12288	; 0x3000
 8000f8e:	6895      	ldr	r5, [r2, #8]
 8000f90:	2002      	movs	r0, #2
 8000f92:	1aeb      	subs	r3, r5, r3
 8000f94:	6093      	str	r3, [r2, #8]
 8000f96:	f00f fb45 	bl	8010624 <SetEPRxStatus>
 8000f9a:	f7ff fd45 	bl	8000a28 <Led_RW_ON>
 8000f9e:	f8d4 1218 	ldr.w	r1, [r4, #536]	; 0x218
 8000fa2:	b989      	cbnz	r1, 8000fc8 <Write_Memory+0xec>
 8000fa4:	2500      	movs	r5, #0
 8000fa6:	4628      	mov	r0, r5
 8000fa8:	2101      	movs	r1, #1
 8000faa:	f8c4 5210 	str.w	r5, [r4, #528]	; 0x210
 8000fae:	f000 fafd 	bl	80015ac <Set_CSW>
 8000fb2:	7025      	strb	r5, [r4, #0]
 8000fb4:	e8bd 41f0 	ldmia.w	sp!, {r4, r5, r6, r7, r8, lr}
 8000fb8:	f7ff bd3e 	b.w	8000a38 <Led_RW_OFF>
 8000fbc:	2b01      	cmp	r3, #1
 8000fbe:	d00b      	beq.n	8000fd8 <Write_Memory+0xfc>
 8000fc0:	f8d4 1218 	ldr.w	r1, [r4, #536]	; 0x218
 8000fc4:	2900      	cmp	r1, #0
 8000fc6:	d0ed      	beq.n	8000fa4 <Write_Memory+0xc8>
 8000fc8:	480b      	ldr	r0, [pc, #44]	; (8000ff8 <Write_Memory+0x11c>)
 8000fca:	f890 c000 	ldrb.w	ip, [r0]
 8000fce:	f1bc 0f04 	cmp.w	ip, #4
 8000fd2:	d0e7      	beq.n	8000fa4 <Write_Memory+0xc8>
 8000fd4:	e8bd 81f0 	ldmia.w	sp!, {r4, r5, r6, r7, r8, pc}
 8000fd8:	4a02      	ldr	r2, [pc, #8]	; (8000fe4 <Write_Memory+0x108>)
 8000fda:	e795      	b.n	8000f08 <Write_Memory+0x2c>
 8000fdc:	200006f4 	.word	0x200006f4
 8000fe0:	20000c7c 	.word	0x20000c7c
 8000fe4:	20000d1a 	.word	0x20000d1a
 8000fe8:	20000c94 	.word	0x20000c94
 8000fec:	20000cb8 	.word	0x20000cb8
 8000ff0:	20000c8c 	.word	0x20000c8c
 8000ff4:	20000cc0 	.word	0x20000cc0
 8000ff8:	20000cba 	.word	0x20000cba
 8000ffc:	20000cd4 	.word	0x20000cd4

08001000 <Mass_Storage_In>:
 8001000:	b570      	push	{r4, r5, r6, lr}
 8001002:	4c1b      	ldr	r4, [pc, #108]	; (8001070 <Mass_Storage_In+0x70>)
 8001004:	7820      	ldrb	r0, [r4, #0]
 8001006:	1e83      	subs	r3, r0, #2
 8001008:	2b03      	cmp	r3, #3
 800100a:	d807      	bhi.n	800101c <Mass_Storage_In+0x1c>
 800100c:	e8df f003 	tbb	[pc, r3]
 8001010:	07071002 	.word	0x07071002
 8001014:	4b17      	ldr	r3, [pc, #92]	; (8001074 <Mass_Storage_In+0x74>)
 8001016:	7bd9      	ldrb	r1, [r3, #15]
 8001018:	2928      	cmp	r1, #40	; 0x28
 800101a:	d020      	beq.n	800105e <Mass_Storage_In+0x5e>
 800101c:	bd70      	pop	{r4, r5, r6, pc}
 800101e:	2200      	movs	r2, #0
 8001020:	2002      	movs	r0, #2
 8001022:	f44f 5140 	mov.w	r1, #12288	; 0x3000
 8001026:	7022      	strb	r2, [r4, #0]
 8001028:	e8bd 4070 	ldmia.w	sp!, {r4, r5, r6, lr}
 800102c:	f00f bafa 	b.w	8010624 <SetEPRxStatus>
 8001030:	4b11      	ldr	r3, [pc, #68]	; (8001078 <Mass_Storage_In+0x78>)
 8001032:	4d12      	ldr	r5, [pc, #72]	; (800107c <Mass_Storage_In+0x7c>)
 8001034:	4619      	mov	r1, r3
 8001036:	601d      	str	r5, [r3, #0]
 8001038:	2500      	movs	r5, #0
 800103a:	220d      	movs	r2, #13
 800103c:	731d      	strb	r5, [r3, #12]
 800103e:	2081      	movs	r0, #129	; 0x81
 8001040:	f00f febe 	bl	8010dc0 <USB_SIL_Write>
 8001044:	2001      	movs	r0, #1
 8001046:	2130      	movs	r1, #48	; 0x30
 8001048:	2304      	movs	r3, #4
 800104a:	7023      	strb	r3, [r4, #0]
 800104c:	f00f faca 	bl	80105e4 <SetEPTxStatus>
 8001050:	2002      	movs	r0, #2
 8001052:	f44f 5140 	mov.w	r1, #12288	; 0x3000
 8001056:	e8bd 4070 	ldmia.w	sp!, {r4, r5, r6, lr}
 800105a:	f00f bae3 	b.w	8010624 <SetEPRxStatus>
 800105e:	7b58      	ldrb	r0, [r3, #13]
 8001060:	4a07      	ldr	r2, [pc, #28]	; (8001080 <Mass_Storage_In+0x80>)
 8001062:	4b08      	ldr	r3, [pc, #32]	; (8001084 <Mass_Storage_In+0x84>)
 8001064:	6811      	ldr	r1, [r2, #0]
 8001066:	681a      	ldr	r2, [r3, #0]
 8001068:	e8bd 4070 	ldmia.w	sp!, {r4, r5, r6, lr}
 800106c:	f000 be26 	b.w	8001cbc <SCSI_Read10_Cmd>
 8001070:	20000cba 	.word	0x20000cba
 8001074:	20000c98 	.word	0x20000c98
 8001078:	20000cc0 	.word	0x20000cc0
 800107c:	53425355 	.word	0x53425355
 8001080:	20000cbc 	.word	0x20000cbc
 8001084:	20000cd0 	.word	0x20000cd0

08001088 <CBW_Decode>:
 8001088:	e92d 4ff0 	stmdb	sp!, {r4, r5, r6, r7, r8, r9, sl, fp, lr}
 800108c:	4b53      	ldr	r3, [pc, #332]	; (80011dc <CBW_Decode+0x154>)
 800108e:	b081      	sub	sp, #4
 8001090:	f8b3 9000 	ldrh.w	r9, [r3]
 8001094:	f1b9 0f00 	cmp.w	r9, #0
 8001098:	f000 81a5 	beq.w	80013e6 <CBW_Decode+0x35e>
 800109c:	ea4f 0a99 	mov.w	sl, r9, lsr #2
 80010a0:	f1b9 0f03 	cmp.w	r9, #3
 80010a4:	ea4f 0b8a 	mov.w	fp, sl, lsl #2
 80010a8:	f240 8208 	bls.w	80014bc <CBW_Decode+0x434>
 80010ac:	f1bb 0f00 	cmp.w	fp, #0
 80010b0:	f000 8204 	beq.w	80014bc <CBW_Decode+0x434>
 80010b4:	494a      	ldr	r1, [pc, #296]	; (80011e0 <CBW_Decode+0x158>)
 80010b6:	4c4b      	ldr	r4, [pc, #300]	; (80011e4 <CBW_Decode+0x15c>)
 80010b8:	460a      	mov	r2, r1
 80010ba:	f852 5b04 	ldr.w	r5, [r2], #4
 80010be:	2601      	movs	r6, #1
 80010c0:	f10a 30ff 	add.w	r0, sl, #4294967295
 80010c4:	4623      	mov	r3, r4
 80010c6:	45b2      	cmp	sl, r6
 80010c8:	f843 5b04 	str.w	r5, [r3], #4
 80010cc:	f000 0003 	and.w	r0, r0, #3
 80010d0:	d92a      	bls.n	8001128 <CBW_Decode+0xa0>
 80010d2:	b1b0      	cbz	r0, 8001102 <CBW_Decode+0x7a>
 80010d4:	2801      	cmp	r0, #1
 80010d6:	d00d      	beq.n	80010f4 <CBW_Decode+0x6c>
 80010d8:	2802      	cmp	r0, #2
 80010da:	d006      	beq.n	80010ea <CBW_Decode+0x62>
 80010dc:	6812      	ldr	r2, [r2, #0]
 80010de:	2602      	movs	r6, #2
 80010e0:	601a      	str	r2, [r3, #0]
 80010e2:	f101 0208 	add.w	r2, r1, #8
 80010e6:	f104 0308 	add.w	r3, r4, #8
 80010ea:	f852 5b04 	ldr.w	r5, [r2], #4
 80010ee:	3601      	adds	r6, #1
 80010f0:	f843 5b04 	str.w	r5, [r3], #4
 80010f4:	f852 0b04 	ldr.w	r0, [r2], #4
 80010f8:	3601      	adds	r6, #1
 80010fa:	45b2      	cmp	sl, r6
 80010fc:	f843 0b04 	str.w	r0, [r3], #4
 8001100:	d912      	bls.n	8001128 <CBW_Decode+0xa0>
 8001102:	4615      	mov	r5, r2
 8001104:	f855 8b04 	ldr.w	r8, [r5], #4
 8001108:	f8d2 c004 	ldr.w	ip, [r2, #4]
 800110c:	68d7      	ldr	r7, [r2, #12]
 800110e:	686d      	ldr	r5, [r5, #4]
 8001110:	4618      	mov	r0, r3
 8001112:	f840 8b04 	str.w	r8, [r0], #4
 8001116:	3604      	adds	r6, #4
 8001118:	f8c3 c004 	str.w	ip, [r3, #4]
 800111c:	3210      	adds	r2, #16
 800111e:	6045      	str	r5, [r0, #4]
 8001120:	60df      	str	r7, [r3, #12]
 8001122:	3310      	adds	r3, #16
 8001124:	45b2      	cmp	sl, r6
 8001126:	d8ec      	bhi.n	8001102 <CBW_Decode+0x7a>
 8001128:	45d9      	cmp	r9, fp
 800112a:	d031      	beq.n	8001190 <CBW_Decode+0x108>
 800112c:	ea6f 030b 	mvn.w	r3, fp
 8001130:	eb03 0209 	add.w	r2, r3, r9
 8001134:	f811 000b 	ldrb.w	r0, [r1, fp]
 8001138:	f10b 0301 	add.w	r3, fp, #1
 800113c:	4599      	cmp	r9, r3
 800113e:	f804 000b 	strb.w	r0, [r4, fp]
 8001142:	f002 0203 	and.w	r2, r2, #3
 8001146:	d923      	bls.n	8001190 <CBW_Decode+0x108>
 8001148:	b182      	cbz	r2, 800116c <CBW_Decode+0xe4>
 800114a:	2a01      	cmp	r2, #1
 800114c:	d009      	beq.n	8001162 <CBW_Decode+0xda>
 800114e:	2a02      	cmp	r2, #2
 8001150:	d002      	beq.n	8001158 <CBW_Decode+0xd0>
 8001152:	5ccd      	ldrb	r5, [r1, r3]
 8001154:	54e5      	strb	r5, [r4, r3]
 8001156:	3301      	adds	r3, #1
 8001158:	f811 c003 	ldrb.w	ip, [r1, r3]
 800115c:	f804 c003 	strb.w	ip, [r4, r3]
 8001160:	3301      	adds	r3, #1
 8001162:	5cc8      	ldrb	r0, [r1, r3]
 8001164:	54e0      	strb	r0, [r4, r3]
 8001166:	3301      	adds	r3, #1
 8001168:	4599      	cmp	r9, r3
 800116a:	d911      	bls.n	8001190 <CBW_Decode+0x108>
 800116c:	f811 8003 	ldrb.w	r8, [r1, r3]
 8001170:	1c5a      	adds	r2, r3, #1
 8001172:	1cd8      	adds	r0, r3, #3
 8001174:	1c9d      	adds	r5, r3, #2
 8001176:	f811 c002 	ldrb.w	ip, [r1, r2]
 800117a:	5d4f      	ldrb	r7, [r1, r5]
 800117c:	5c0e      	ldrb	r6, [r1, r0]
 800117e:	f804 8003 	strb.w	r8, [r4, r3]
 8001182:	3304      	adds	r3, #4
 8001184:	4599      	cmp	r9, r3
 8001186:	f804 c002 	strb.w	ip, [r4, r2]
 800118a:	5567      	strb	r7, [r4, r5]
 800118c:	5426      	strb	r6, [r4, r0]
 800118e:	d8ed      	bhi.n	800116c <CBW_Decode+0xe4>
 8001190:	4d15      	ldr	r5, [pc, #84]	; (80011e8 <CBW_Decode+0x160>)
 8001192:	6863      	ldr	r3, [r4, #4]
 8001194:	68a1      	ldr	r1, [r4, #8]
 8001196:	f1b9 0f1f 	cmp.w	r9, #31
 800119a:	606b      	str	r3, [r5, #4]
 800119c:	60a9      	str	r1, [r5, #8]
 800119e:	f040 8128 	bne.w	80013f2 <CBW_Decode+0x36a>
 80011a2:	4e10      	ldr	r6, [pc, #64]	; (80011e4 <CBW_Decode+0x15c>)
 80011a4:	7bf3      	ldrb	r3, [r6, #15]
 80011a6:	2b28      	cmp	r3, #40	; 0x28
 80011a8:	f000 80d9 	beq.w	800135e <CBW_Decode+0x2d6>
 80011ac:	2b2a      	cmp	r3, #42	; 0x2a
 80011ae:	f000 80d6 	beq.w	800135e <CBW_Decode+0x2d6>
 80011b2:	6820      	ldr	r0, [r4, #0]
 80011b4:	4a0d      	ldr	r2, [pc, #52]	; (80011ec <CBW_Decode+0x164>)
 80011b6:	4e0b      	ldr	r6, [pc, #44]	; (80011e4 <CBW_Decode+0x15c>)
 80011b8:	4290      	cmp	r0, r2
 80011ba:	f040 80ea 	bne.w	8001392 <CBW_Decode+0x30a>
 80011be:	4a0c      	ldr	r2, [pc, #48]	; (80011f0 <CBW_Decode+0x168>)
 80011c0:	7b70      	ldrb	r0, [r6, #13]
 80011c2:	6811      	ldr	r1, [r2, #0]
 80011c4:	4288      	cmp	r0, r1
 80011c6:	f200 80f1 	bhi.w	80013ac <CBW_Decode+0x324>
 80011ca:	7bb2      	ldrb	r2, [r6, #14]
 80011cc:	2a00      	cmp	r2, #0
 80011ce:	f000 80ed 	beq.w	80013ac <CBW_Decode+0x324>
 80011d2:	2a10      	cmp	r2, #16
 80011d4:	f200 80ea 	bhi.w	80013ac <CBW_Decode+0x324>
 80011d8:	e00c      	b.n	80011f4 <CBW_Decode+0x16c>
 80011da:	bf00      	nop
 80011dc:	20000cb8 	.word	0x20000cb8
 80011e0:	20000cd4 	.word	0x20000cd4
 80011e4:	20000c98 	.word	0x20000c98
 80011e8:	20000cc0 	.word	0x20000cc0
 80011ec:	43425355 	.word	0x43425355
 80011f0:	20000928 	.word	0x20000928
 80011f4:	2baf      	cmp	r3, #175	; 0xaf
 80011f6:	f200 814a 	bhi.w	800148e <CBW_Decode+0x406>
 80011fa:	e8df f013 	tbh	[pc, r3, lsl #1]
 80011fe:	0143      	.short	0x0143
 8001200:	01480148 	.word	0x01480148
 8001204:	0139013e 	.word	0x0139013e
 8001208:	01480148 	.word	0x01480148
 800120c:	01090148 	.word	0x01090148
 8001210:	01090148 	.word	0x01090148
 8001214:	01480148 	.word	0x01480148
 8001218:	01480148 	.word	0x01480148
 800121c:	01480148 	.word	0x01480148
 8001220:	012f0148 	.word	0x012f0148
 8001224:	01480148 	.word	0x01480148
 8001228:	01480109 	.word	0x01480109
 800122c:	01480148 	.word	0x01480148
 8001230:	01250148 	.word	0x01250148
 8001234:	0148010e 	.word	0x0148010e
 8001238:	010e0109 	.word	0x010e0109
 800123c:	01480148 	.word	0x01480148
 8001240:	01480148 	.word	0x01480148
 8001244:	0148015a 	.word	0x0148015a
 8001248:	01480155 	.word	0x01480155
 800124c:	01130148 	.word	0x01130148
 8001250:	011c0148 	.word	0x011c0148
 8001254:	01480148 	.word	0x01480148
 8001258:	01480148 	.word	0x01480148
 800125c:	0148012a 	.word	0x0148012a
 8001260:	01480148 	.word	0x01480148
 8001264:	01480148 	.word	0x01480148
 8001268:	01480148 	.word	0x01480148
 800126c:	01480148 	.word	0x01480148
 8001270:	01480148 	.word	0x01480148
 8001274:	01480148 	.word	0x01480148
 8001278:	01480148 	.word	0x01480148
 800127c:	01480148 	.word	0x01480148
 8001280:	01480148 	.word	0x01480148
 8001284:	01480148 	.word	0x01480148
 8001288:	01480148 	.word	0x01480148
 800128c:	01480148 	.word	0x01480148
 8001290:	01480148 	.word	0x01480148
 8001294:	01480148 	.word	0x01480148
 8001298:	01480148 	.word	0x01480148
 800129c:	01480148 	.word	0x01480148
 80012a0:	01480148 	.word	0x01480148
 80012a4:	01480148 	.word	0x01480148
 80012a8:	01480109 	.word	0x01480109
 80012ac:	01480148 	.word	0x01480148
 80012b0:	01340148 	.word	0x01340148
 80012b4:	01480148 	.word	0x01480148
 80012b8:	01480148 	.word	0x01480148
 80012bc:	01480148 	.word	0x01480148
 80012c0:	01480148 	.word	0x01480148
 80012c4:	01480148 	.word	0x01480148
 80012c8:	01480148 	.word	0x01480148
 80012cc:	01480148 	.word	0x01480148
 80012d0:	01480148 	.word	0x01480148
 80012d4:	01480148 	.word	0x01480148
 80012d8:	01480148 	.word	0x01480148
 80012dc:	01480148 	.word	0x01480148
 80012e0:	01480148 	.word	0x01480148
 80012e4:	01480148 	.word	0x01480148
 80012e8:	01480148 	.word	0x01480148
 80012ec:	01480148 	.word	0x01480148
 80012f0:	01480148 	.word	0x01480148
 80012f4:	01480148 	.word	0x01480148
 80012f8:	01480148 	.word	0x01480148
 80012fc:	01480148 	.word	0x01480148
 8001300:	01480148 	.word	0x01480148
 8001304:	01480148 	.word	0x01480148
 8001308:	01480148 	.word	0x01480148
 800130c:	01090148 	.word	0x01090148
 8001310:	01090148 	.word	0x01090148
 8001314:	01480148 	.word	0x01480148
 8001318:	01480148 	.word	0x01480148
 800131c:	01480109 	.word	0x01480109
 8001320:	01480148 	.word	0x01480148
 8001324:	01480148 	.word	0x01480148
 8001328:	01480148 	.word	0x01480148
 800132c:	01480148 	.word	0x01480148
 8001330:	01480148 	.word	0x01480148
 8001334:	01480148 	.word	0x01480148
 8001338:	01090148 	.word	0x01090148
 800133c:	01480148 	.word	0x01480148
 8001340:	01480148 	.word	0x01480148
 8001344:	01480148 	.word	0x01480148
 8001348:	01480148 	.word	0x01480148
 800134c:	01090148 	.word	0x01090148
 8001350:	01090148 	.word	0x01090148
 8001354:	01480148 	.word	0x01480148
 8001358:	01480148 	.word	0x01480148
 800135c:	0109      	.short	0x0109
 800135e:	7ca1      	ldrb	r1, [r4, #18]
 8001360:	7c67      	ldrb	r7, [r4, #17]
 8001362:	040a      	lsls	r2, r1, #16
 8001364:	7d20      	ldrb	r0, [r4, #20]
 8001366:	ea42 6707 	orr.w	r7, r2, r7, lsl #24
 800136a:	7ce6      	ldrb	r6, [r4, #19]
 800136c:	ea47 0000 	orr.w	r0, r7, r0
 8001370:	f894 c016 	ldrb.w	ip, [r4, #22]
 8001374:	7de1      	ldrb	r1, [r4, #23]
 8001376:	ea40 2606 	orr.w	r6, r0, r6, lsl #8
 800137a:	4a53      	ldr	r2, [pc, #332]	; (80014c8 <CBW_Decode+0x440>)
 800137c:	4853      	ldr	r0, [pc, #332]	; (80014cc <CBW_Decode+0x444>)
 800137e:	ea41 210c 	orr.w	r1, r1, ip, lsl #8
 8001382:	6016      	str	r6, [r2, #0]
 8001384:	6001      	str	r1, [r0, #0]
 8001386:	4a52      	ldr	r2, [pc, #328]	; (80014d0 <CBW_Decode+0x448>)
 8001388:	6820      	ldr	r0, [r4, #0]
 800138a:	4e52      	ldr	r6, [pc, #328]	; (80014d4 <CBW_Decode+0x44c>)
 800138c:	4290      	cmp	r0, r2
 800138e:	f43f af16 	beq.w	80011be <CBW_Decode+0x136>
 8001392:	2001      	movs	r0, #1
 8001394:	2110      	movs	r1, #16
 8001396:	f00f f925 	bl	80105e4 <SetEPTxStatus>
 800139a:	2002      	movs	r0, #2
 800139c:	f44f 5180 	mov.w	r1, #4096	; 0x1000
 80013a0:	f00f f940 	bl	8010624 <SetEPRxStatus>
 80013a4:	7b70      	ldrb	r0, [r6, #13]
 80013a6:	2105      	movs	r1, #5
 80013a8:	2220      	movs	r2, #32
 80013aa:	e00b      	b.n	80013c4 <CBW_Decode+0x33c>
 80013ac:	2001      	movs	r0, #1
 80013ae:	2110      	movs	r1, #16
 80013b0:	f00f f918 	bl	80105e4 <SetEPTxStatus>
 80013b4:	2002      	movs	r0, #2
 80013b6:	f44f 5180 	mov.w	r1, #4096	; 0x1000
 80013ba:	f00f f933 	bl	8010624 <SetEPRxStatus>
 80013be:	7b60      	ldrb	r0, [r4, #13]
 80013c0:	2105      	movs	r1, #5
 80013c2:	2224      	movs	r2, #36	; 0x24
 80013c4:	f000 fc70 	bl	8001ca8 <Set_Scsi_Sense_Data>
 80013c8:	4b43      	ldr	r3, [pc, #268]	; (80014d8 <CBW_Decode+0x450>)
 80013ca:	4944      	ldr	r1, [pc, #272]	; (80014dc <CBW_Decode+0x454>)
 80013cc:	602b      	str	r3, [r5, #0]
 80013ce:	2301      	movs	r3, #1
 80013d0:	2081      	movs	r0, #129	; 0x81
 80013d2:	220d      	movs	r2, #13
 80013d4:	732b      	strb	r3, [r5, #12]
 80013d6:	f00f fcf3 	bl	8010dc0 <USB_SIL_Write>
 80013da:	4941      	ldr	r1, [pc, #260]	; (80014e0 <CBW_Decode+0x458>)
 80013dc:	2005      	movs	r0, #5
 80013de:	7008      	strb	r0, [r1, #0]
 80013e0:	b001      	add	sp, #4
 80013e2:	e8bd 8ff0 	ldmia.w	sp!, {r4, r5, r6, r7, r8, r9, sl, fp, pc}
 80013e6:	4c3b      	ldr	r4, [pc, #236]	; (80014d4 <CBW_Decode+0x44c>)
 80013e8:	4d3c      	ldr	r5, [pc, #240]	; (80014dc <CBW_Decode+0x454>)
 80013ea:	6862      	ldr	r2, [r4, #4]
 80013ec:	68a0      	ldr	r0, [r4, #8]
 80013ee:	606a      	str	r2, [r5, #4]
 80013f0:	60a8      	str	r0, [r5, #8]
 80013f2:	2001      	movs	r0, #1
 80013f4:	2110      	movs	r1, #16
 80013f6:	f00f f8f5 	bl	80105e4 <SetEPTxStatus>
 80013fa:	2002      	movs	r0, #2
 80013fc:	f44f 5180 	mov.w	r1, #4096	; 0x1000
 8001400:	f00f f910 	bl	8010624 <SetEPRxStatus>
 8001404:	2300      	movs	r3, #0
 8001406:	7b60      	ldrb	r0, [r4, #13]
 8001408:	2105      	movs	r1, #5
 800140a:	221a      	movs	r2, #26
 800140c:	6023      	str	r3, [r4, #0]
 800140e:	e7d9      	b.n	80013c4 <CBW_Decode+0x33c>
 8001410:	b001      	add	sp, #4
 8001412:	e8bd 4ff0 	ldmia.w	sp!, {r4, r5, r6, r7, r8, r9, sl, fp, lr}
 8001416:	f000 bd61 	b.w	8001edc <SCSI_Invalid_Cmd>
 800141a:	b001      	add	sp, #4
 800141c:	e8bd 4ff0 	ldmia.w	sp!, {r4, r5, r6, r7, r8, r9, sl, fp, lr}
 8001420:	f000 bc48 	b.w	8001cb4 <SCSI_Start_Stop_Unit_Cmd>
 8001424:	4b29      	ldr	r3, [pc, #164]	; (80014cc <CBW_Decode+0x444>)
 8001426:	4928      	ldr	r1, [pc, #160]	; (80014c8 <CBW_Decode+0x440>)
 8001428:	681a      	ldr	r2, [r3, #0]
 800142a:	6809      	ldr	r1, [r1, #0]
 800142c:	b001      	add	sp, #4
 800142e:	e8bd 4ff0 	ldmia.w	sp!, {r4, r5, r6, r7, r8, r9, sl, fp, lr}
 8001432:	f000 bc43 	b.w	8001cbc <SCSI_Read10_Cmd>
 8001436:	4b24      	ldr	r3, [pc, #144]	; (80014c8 <CBW_Decode+0x440>)
 8001438:	4a24      	ldr	r2, [pc, #144]	; (80014cc <CBW_Decode+0x444>)
 800143a:	6819      	ldr	r1, [r3, #0]
 800143c:	6812      	ldr	r2, [r2, #0]
 800143e:	b001      	add	sp, #4
 8001440:	e8bd 4ff0 	ldmia.w	sp!, {r4, r5, r6, r7, r8, r9, sl, fp, lr}
 8001444:	f000 bc92 	b.w	8001d6c <SCSI_Write10_Cmd>
 8001448:	b001      	add	sp, #4
 800144a:	e8bd 4ff0 	ldmia.w	sp!, {r4, r5, r6, r7, r8, r9, sl, fp, lr}
 800144e:	f000 bc13 	b.w	8001c78 <SCSI_ModeSense6_Cmd>
 8001452:	b001      	add	sp, #4
 8001454:	e8bd 4ff0 	ldmia.w	sp!, {r4, r5, r6, r7, r8, r9, sl, fp, lr}
 8001458:	f000 bcde 	b.w	8001e18 <SCSI_Verify10_Cmd>
 800145c:	b001      	add	sp, #4
 800145e:	e8bd 4ff0 	ldmia.w	sp!, {r4, r5, r6, r7, r8, r9, sl, fp, lr}
 8001462:	f000 bb75 	b.w	8001b50 <SCSI_Inquiry_Cmd>
 8001466:	b001      	add	sp, #4
 8001468:	e8bd 4ff0 	ldmia.w	sp!, {r4, r5, r6, r7, r8, r9, sl, fp, lr}
 800146c:	f000 bc0a 	b.w	8001c84 <SCSI_ModeSense10_Cmd>
 8001470:	b001      	add	sp, #4
 8001472:	e8bd 4ff0 	ldmia.w	sp!, {r4, r5, r6, r7, r8, r9, sl, fp, lr}
 8001476:	f000 bd25 	b.w	8001ec4 <SCSI_Format_Cmd>
 800147a:	b001      	add	sp, #4
 800147c:	e8bd 4ff0 	ldmia.w	sp!, {r4, r5, r6, r7, r8, r9, sl, fp, lr}
 8001480:	f000 bc06 	b.w	8001c90 <SCSI_RequestSense_Cmd>
 8001484:	b001      	add	sp, #4
 8001486:	e8bd 4ff0 	ldmia.w	sp!, {r4, r5, r6, r7, r8, r9, sl, fp, lr}
 800148a:	f000 bd01 	b.w	8001e90 <SCSI_TestUnitReady_Cmd>
 800148e:	2001      	movs	r0, #1
 8001490:	2110      	movs	r1, #16
 8001492:	f00f f8a7 	bl	80105e4 <SetEPTxStatus>
 8001496:	2002      	movs	r0, #2
 8001498:	f44f 5180 	mov.w	r1, #4096	; 0x1000
 800149c:	f00f f8c2 	bl	8010624 <SetEPRxStatus>
 80014a0:	7b60      	ldrb	r0, [r4, #13]
 80014a2:	2105      	movs	r1, #5
 80014a4:	2220      	movs	r2, #32
 80014a6:	e78d      	b.n	80013c4 <CBW_Decode+0x33c>
 80014a8:	b001      	add	sp, #4
 80014aa:	e8bd 4ff0 	ldmia.w	sp!, {r4, r5, r6, r7, r8, r9, sl, fp, lr}
 80014ae:	f000 bba5 	b.w	8001bfc <SCSI_ReadCapacity10_Cmd>
 80014b2:	b001      	add	sp, #4
 80014b4:	e8bd 4ff0 	ldmia.w	sp!, {r4, r5, r6, r7, r8, r9, sl, fp, lr}
 80014b8:	f000 bb66 	b.w	8001b88 <SCSI_ReadFormatCapacity_Cmd>
 80014bc:	4c05      	ldr	r4, [pc, #20]	; (80014d4 <CBW_Decode+0x44c>)
 80014be:	4909      	ldr	r1, [pc, #36]	; (80014e4 <CBW_Decode+0x45c>)
 80014c0:	f04f 0b00 	mov.w	fp, #0
 80014c4:	e632      	b.n	800112c <CBW_Decode+0xa4>
 80014c6:	bf00      	nop
 80014c8:	20000cbc 	.word	0x20000cbc
 80014cc:	20000cd0 	.word	0x20000cd0
 80014d0:	43425355 	.word	0x43425355
 80014d4:	20000c98 	.word	0x20000c98
 80014d8:	53425355 	.word	0x53425355
 80014dc:	20000cc0 	.word	0x20000cc0
 80014e0:	20000cba 	.word	0x20000cba
 80014e4:	20000cd4 	.word	0x20000cd4

080014e8 <Mass_Storage_Out>:
 80014e8:	b570      	push	{r4, r5, r6, lr}
 80014ea:	4d1b      	ldr	r5, [pc, #108]	; (8001558 <Mass_Storage_Out+0x70>)
 80014ec:	2002      	movs	r0, #2
 80014ee:	491b      	ldr	r1, [pc, #108]	; (800155c <Mass_Storage_Out+0x74>)
 80014f0:	7bee      	ldrb	r6, [r5, #15]
 80014f2:	f00f fc79 	bl	8010de8 <USB_SIL_Read>
 80014f6:	4c1a      	ldr	r4, [pc, #104]	; (8001560 <Mass_Storage_Out+0x78>)
 80014f8:	4a1a      	ldr	r2, [pc, #104]	; (8001564 <Mass_Storage_Out+0x7c>)
 80014fa:	7823      	ldrb	r3, [r4, #0]
 80014fc:	8010      	strh	r0, [r2, #0]
 80014fe:	b913      	cbnz	r3, 8001506 <Mass_Storage_Out+0x1e>
 8001500:	e8bd 4070 	ldmia.w	sp!, {r4, r5, r6, lr}
 8001504:	e5c0      	b.n	8001088 <CBW_Decode>
 8001506:	2b01      	cmp	r3, #1
 8001508:	d01a      	beq.n	8001540 <Mass_Storage_Out+0x58>
 800150a:	2001      	movs	r0, #1
 800150c:	2110      	movs	r1, #16
 800150e:	f00f f869 	bl	80105e4 <SetEPTxStatus>
 8001512:	2002      	movs	r0, #2
 8001514:	f44f 5180 	mov.w	r1, #4096	; 0x1000
 8001518:	f00f f884 	bl	8010624 <SetEPRxStatus>
 800151c:	7b68      	ldrb	r0, [r5, #13]
 800151e:	2105      	movs	r1, #5
 8001520:	2224      	movs	r2, #36	; 0x24
 8001522:	f000 fbc1 	bl	8001ca8 <Set_Scsi_Sense_Data>
 8001526:	4d10      	ldr	r5, [pc, #64]	; (8001568 <Mass_Storage_Out+0x80>)
 8001528:	4b10      	ldr	r3, [pc, #64]	; (800156c <Mass_Storage_Out+0x84>)
 800152a:	2081      	movs	r0, #129	; 0x81
 800152c:	601d      	str	r5, [r3, #0]
 800152e:	2502      	movs	r5, #2
 8001530:	4619      	mov	r1, r3
 8001532:	220d      	movs	r2, #13
 8001534:	731d      	strb	r5, [r3, #12]
 8001536:	f00f fc43 	bl	8010dc0 <USB_SIL_Write>
 800153a:	2005      	movs	r0, #5
 800153c:	7020      	strb	r0, [r4, #0]
 800153e:	bd70      	pop	{r4, r5, r6, pc}
 8001540:	2e2a      	cmp	r6, #42	; 0x2a
 8001542:	d1e6      	bne.n	8001512 <Mass_Storage_Out+0x2a>
 8001544:	4b0a      	ldr	r3, [pc, #40]	; (8001570 <Mass_Storage_Out+0x88>)
 8001546:	490b      	ldr	r1, [pc, #44]	; (8001574 <Mass_Storage_Out+0x8c>)
 8001548:	7b68      	ldrb	r0, [r5, #13]
 800154a:	6809      	ldr	r1, [r1, #0]
 800154c:	681a      	ldr	r2, [r3, #0]
 800154e:	e8bd 4070 	ldmia.w	sp!, {r4, r5, r6, lr}
 8001552:	f000 bc0b 	b.w	8001d6c <SCSI_Write10_Cmd>
 8001556:	bf00      	nop
 8001558:	20000c98 	.word	0x20000c98
 800155c:	20000cd4 	.word	0x20000cd4
 8001560:	20000cba 	.word	0x20000cba
 8001564:	20000cb8 	.word	0x20000cb8
 8001568:	53425355 	.word	0x53425355
 800156c:	20000cc0 	.word	0x20000cc0
 8001570:	20000cd0 	.word	0x20000cd0
 8001574:	20000cbc 	.word	0x20000cbc

08001578 <Transfer_Data_Request>:
 8001578:	b510      	push	{r4, lr}
 800157a:	460c      	mov	r4, r1
 800157c:	4622      	mov	r2, r4
 800157e:	4601      	mov	r1, r0
 8001580:	2081      	movs	r0, #129	; 0x81
 8001582:	f00f fc1d 	bl	8010dc0 <USB_SIL_Write>
 8001586:	2001      	movs	r0, #1
 8001588:	2130      	movs	r1, #48	; 0x30
 800158a:	f00f f82b 	bl	80105e4 <SetEPTxStatus>
 800158e:	4b05      	ldr	r3, [pc, #20]	; (80015a4 <Transfer_Data_Request+0x2c>)
 8001590:	4805      	ldr	r0, [pc, #20]	; (80015a8 <Transfer_Data_Request+0x30>)
 8001592:	689a      	ldr	r2, [r3, #8]
 8001594:	2103      	movs	r1, #3
 8001596:	1b14      	subs	r4, r2, r4
 8001598:	2200      	movs	r2, #0
 800159a:	7001      	strb	r1, [r0, #0]
 800159c:	609c      	str	r4, [r3, #8]
 800159e:	731a      	strb	r2, [r3, #12]
 80015a0:	bd10      	pop	{r4, pc}
 80015a2:	bf00      	nop
 80015a4:	20000cc0 	.word	0x20000cc0
 80015a8:	20000cba 	.word	0x20000cba

080015ac <Set_CSW>:
 80015ac:	b570      	push	{r4, r5, r6, lr}
 80015ae:	4b0b      	ldr	r3, [pc, #44]	; (80015dc <Set_CSW+0x30>)
 80015b0:	4d0b      	ldr	r5, [pc, #44]	; (80015e0 <Set_CSW+0x34>)
 80015b2:	7318      	strb	r0, [r3, #12]
 80015b4:	220d      	movs	r2, #13
 80015b6:	601d      	str	r5, [r3, #0]
 80015b8:	460c      	mov	r4, r1
 80015ba:	2081      	movs	r0, #129	; 0x81
 80015bc:	4619      	mov	r1, r3
 80015be:	f00f fbff 	bl	8010dc0 <USB_SIL_Write>
 80015c2:	4b08      	ldr	r3, [pc, #32]	; (80015e4 <Set_CSW+0x38>)
 80015c4:	2205      	movs	r2, #5
 80015c6:	701a      	strb	r2, [r3, #0]
 80015c8:	b904      	cbnz	r4, 80015cc <Set_CSW+0x20>
 80015ca:	bd70      	pop	{r4, r5, r6, pc}
 80015cc:	2204      	movs	r2, #4
 80015ce:	2001      	movs	r0, #1
 80015d0:	2130      	movs	r1, #48	; 0x30
 80015d2:	701a      	strb	r2, [r3, #0]
 80015d4:	e8bd 4070 	ldmia.w	sp!, {r4, r5, r6, lr}
 80015d8:	f00f b804 	b.w	80105e4 <SetEPTxStatus>
 80015dc:	20000cc0 	.word	0x20000cc0
 80015e0:	53425355 	.word	0x53425355
 80015e4:	20000cba 	.word	0x20000cba

080015e8 <Bot_Abort>:
 80015e8:	2801      	cmp	r0, #1
 80015ea:	b510      	push	{r4, lr}
 80015ec:	4604      	mov	r4, r0
 80015ee:	d009      	beq.n	8001604 <Bot_Abort+0x1c>
 80015f0:	d302      	bcc.n	80015f8 <Bot_Abort+0x10>
 80015f2:	2802      	cmp	r0, #2
 80015f4:	d00d      	beq.n	8001612 <Bot_Abort+0x2a>
 80015f6:	bd10      	pop	{r4, pc}
 80015f8:	2001      	movs	r0, #1
 80015fa:	2110      	movs	r1, #16
 80015fc:	e8bd 4010 	ldmia.w	sp!, {r4, lr}
 8001600:	f00e bff0 	b.w	80105e4 <SetEPTxStatus>
 8001604:	2002      	movs	r0, #2
 8001606:	f44f 5180 	mov.w	r1, #4096	; 0x1000
 800160a:	e8bd 4010 	ldmia.w	sp!, {r4, lr}
 800160e:	f00f b809 	b.w	8010624 <SetEPRxStatus>
 8001612:	2110      	movs	r1, #16
 8001614:	2001      	movs	r0, #1
 8001616:	f00e ffe5 	bl	80105e4 <SetEPTxStatus>
 800161a:	4620      	mov	r0, r4
 800161c:	f44f 5180 	mov.w	r1, #4096	; 0x1000
 8001620:	e8bd 4010 	ldmia.w	sp!, {r4, lr}
 8001624:	f00e bffe 	b.w	8010624 <SetEPRxStatus>

08001628 <EP1_IN_Callback>:
 8001628:	f7ff bcea 	b.w	8001000 <Mass_Storage_In>

0800162c <EP2_OUT_Callback>:
 800162c:	f7ff bf5c 	b.w	80014e8 <Mass_Storage_Out>

08001630 <USB_Istr>:
 8001630:	4935      	ldr	r1, [pc, #212]	; (8001708 <USB_Istr+0xd8>)
 8001632:	b570      	push	{r4, r5, r6, lr}
 8001634:	680b      	ldr	r3, [r1, #0]
 8001636:	4c35      	ldr	r4, [pc, #212]	; (800170c <USB_Istr+0xdc>)
 8001638:	4d35      	ldr	r5, [pc, #212]	; (8001710 <USB_Istr+0xe0>)
 800163a:	8023      	strh	r3, [r4, #0]
 800163c:	8820      	ldrh	r0, [r4, #0]
 800163e:	882b      	ldrh	r3, [r5, #0]
 8001640:	ea03 0200 	and.w	r2, r3, r0
 8001644:	f412 4f00 	tst.w	r2, #32768	; 0x8000
 8001648:	d13d      	bne.n	80016c6 <USB_Istr+0x96>
 800164a:	8822      	ldrh	r2, [r4, #0]
 800164c:	f402 6c80 	and.w	ip, r2, #1024	; 0x400
 8001650:	ea1c 0f03 	tst.w	ip, r3
 8001654:	d140      	bne.n	80016d8 <USB_Istr+0xa8>
 8001656:	8820      	ldrh	r0, [r4, #0]
 8001658:	f400 5c80 	and.w	ip, r0, #4096	; 0x1000
 800165c:	ea1c 0f03 	tst.w	ip, r3
 8001660:	d148      	bne.n	80016f4 <USB_Istr+0xc4>
 8001662:	f8b4 c000 	ldrh.w	ip, [r4]
 8001666:	f40c 6200 	and.w	r2, ip, #2048	; 0x800
 800166a:	421a      	tst	r2, r3
 800166c:	d00a      	beq.n	8001684 <USB_Istr+0x54>
 800166e:	4929      	ldr	r1, [pc, #164]	; (8001714 <USB_Istr+0xe4>)
 8001670:	7808      	ldrb	r0, [r1, #0]
 8001672:	b9e0      	cbnz	r0, 80016ae <USB_Istr+0x7e>
 8001674:	2002      	movs	r0, #2
 8001676:	f000 f9f3 	bl	8001a60 <Resume>
 800167a:	4a23      	ldr	r2, [pc, #140]	; (8001708 <USB_Istr+0xd8>)
 800167c:	f24f 70ff 	movw	r0, #63487	; 0xf7ff
 8001680:	882b      	ldrh	r3, [r5, #0]
 8001682:	6010      	str	r0, [r2, #0]
 8001684:	8821      	ldrh	r1, [r4, #0]
 8001686:	f401 7c00 	and.w	ip, r1, #512	; 0x200
 800168a:	ea1c 0f03 	tst.w	ip, r3
 800168e:	d007      	beq.n	80016a0 <USB_Istr+0x70>
 8001690:	491d      	ldr	r1, [pc, #116]	; (8001708 <USB_Istr+0xd8>)
 8001692:	4a21      	ldr	r2, [pc, #132]	; (8001718 <USB_Istr+0xe8>)
 8001694:	f64f 50ff 	movw	r0, #65023	; 0xfdff
 8001698:	6008      	str	r0, [r1, #0]
 800169a:	7811      	ldrb	r1, [r2, #0]
 800169c:	1c48      	adds	r0, r1, #1
 800169e:	7010      	strb	r0, [r2, #0]
 80016a0:	8822      	ldrh	r2, [r4, #0]
 80016a2:	f402 7c80 	and.w	ip, r2, #256	; 0x100
 80016a6:	ea1c 0f03 	tst.w	ip, r3
 80016aa:	d103      	bne.n	80016b4 <USB_Istr+0x84>
 80016ac:	bd70      	pop	{r4, r5, r6, pc}
 80016ae:	f000 f995 	bl	80019dc <Suspend>
 80016b2:	e7e2      	b.n	800167a <USB_Istr+0x4a>
 80016b4:	4b14      	ldr	r3, [pc, #80]	; (8001708 <USB_Istr+0xd8>)
 80016b6:	f64f 61ff 	movw	r1, #65279	; 0xfeff
 80016ba:	2007      	movs	r0, #7
 80016bc:	6019      	str	r1, [r3, #0]
 80016be:	e8bd 4070 	ldmia.w	sp!, {r4, r5, r6, lr}
 80016c2:	f000 b9cd 	b.w	8001a60 <Resume>
 80016c6:	f00e fda1 	bl	801020c <CTR_LP>
 80016ca:	8822      	ldrh	r2, [r4, #0]
 80016cc:	882b      	ldrh	r3, [r5, #0]
 80016ce:	f402 6c80 	and.w	ip, r2, #1024	; 0x400
 80016d2:	ea1c 0f03 	tst.w	ip, r3
 80016d6:	d0be      	beq.n	8001656 <USB_Istr+0x26>
 80016d8:	4b10      	ldr	r3, [pc, #64]	; (800171c <USB_Istr+0xec>)
 80016da:	4a0b      	ldr	r2, [pc, #44]	; (8001708 <USB_Istr+0xd8>)
 80016dc:	f64f 31ff 	movw	r1, #64511	; 0xfbff
 80016e0:	6858      	ldr	r0, [r3, #4]
 80016e2:	6011      	str	r1, [r2, #0]
 80016e4:	4780      	blx	r0
 80016e6:	8820      	ldrh	r0, [r4, #0]
 80016e8:	882b      	ldrh	r3, [r5, #0]
 80016ea:	f400 5c80 	and.w	ip, r0, #4096	; 0x1000
 80016ee:	ea1c 0f03 	tst.w	ip, r3
 80016f2:	d0b6      	beq.n	8001662 <USB_Istr+0x32>
 80016f4:	4b04      	ldr	r3, [pc, #16]	; (8001708 <USB_Istr+0xd8>)
 80016f6:	f64e 71ff 	movw	r1, #61439	; 0xefff
 80016fa:	6019      	str	r1, [r3, #0]
 80016fc:	2000      	movs	r0, #0
 80016fe:	f000 f9af 	bl	8001a60 <Resume>
 8001702:	882b      	ldrh	r3, [r5, #0]
 8001704:	e7ad      	b.n	8001662 <USB_Istr+0x32>
 8001706:	bf00      	nop
 8001708:	40005c44 	.word	0x40005c44
 800170c:	20000d14 	.word	0x20000d14
 8001710:	200011f4 	.word	0x200011f4
 8001714:	2000015c 	.word	0x2000015c
 8001718:	20000924 	.word	0x20000924
 800171c:	20000104 	.word	0x20000104

08001720 <Mass_Storage_SetDeviceAddress>:
 8001720:	4b01      	ldr	r3, [pc, #4]	; (8001728 <Mass_Storage_SetDeviceAddress+0x8>)
 8001722:	2204      	movs	r2, #4
 8001724:	601a      	str	r2, [r3, #0]
 8001726:	4770      	bx	lr
 8001728:	2000092c 	.word	0x2000092c

0800172c <MASS_Status_In>:
 800172c:	4770      	bx	lr
 800172e:	bf00      	nop

08001730 <MASS_Status_Out>:
 8001730:	4770      	bx	lr
 8001732:	bf00      	nop

08001734 <MASS_Get_Interface_Setting>:
 8001734:	b919      	cbnz	r1, 800173e <MASS_Get_Interface_Setting+0xa>
 8001736:	2800      	cmp	r0, #0
 8001738:	bf18      	it	ne
 800173a:	2002      	movne	r0, #2
 800173c:	4770      	bx	lr
 800173e:	2002      	movs	r0, #2
 8001740:	4770      	bx	lr
 8001742:	bf00      	nop

08001744 <Get_Max_Lun>:
 8001744:	b108      	cbz	r0, 800174a <Get_Max_Lun+0x6>
 8001746:	4803      	ldr	r0, [pc, #12]	; (8001754 <Get_Max_Lun+0x10>)
 8001748:	4770      	bx	lr
 800174a:	4903      	ldr	r1, [pc, #12]	; (8001758 <Get_Max_Lun+0x14>)
 800174c:	2201      	movs	r2, #1
 800174e:	680b      	ldr	r3, [r1, #0]
 8001750:	821a      	strh	r2, [r3, #16]
 8001752:	4770      	bx	lr
 8001754:	20000928 	.word	0x20000928
 8001758:	200011f0 	.word	0x200011f0

0800175c <MASS_Data_Setup>:
 800175c:	b510      	push	{r4, lr}
 800175e:	4b0e      	ldr	r3, [pc, #56]	; (8001798 <MASS_Data_Setup+0x3c>)
 8001760:	681b      	ldr	r3, [r3, #0]
 8001762:	7819      	ldrb	r1, [r3, #0]
 8001764:	f001 027f 	and.w	r2, r1, #127	; 0x7f
 8001768:	2a21      	cmp	r2, #33	; 0x21
 800176a:	d001      	beq.n	8001770 <MASS_Data_Setup+0x14>
 800176c:	2002      	movs	r0, #2
 800176e:	bd10      	pop	{r4, pc}
 8001770:	28fe      	cmp	r0, #254	; 0xfe
 8001772:	d1fb      	bne.n	800176c <MASS_Data_Setup+0x10>
 8001774:	885c      	ldrh	r4, [r3, #2]
 8001776:	2c00      	cmp	r4, #0
 8001778:	d1f8      	bne.n	800176c <MASS_Data_Setup+0x10>
 800177a:	6858      	ldr	r0, [r3, #4]
 800177c:	f5b0 3f80 	cmp.w	r0, #65536	; 0x10000
 8001780:	d001      	beq.n	8001786 <MASS_Data_Setup+0x2a>
 8001782:	2002      	movs	r0, #2
 8001784:	bd10      	pop	{r4, pc}
 8001786:	4a05      	ldr	r2, [pc, #20]	; (800179c <MASS_Data_Setup+0x40>)
 8001788:	825c      	strh	r4, [r3, #18]
 800178a:	619a      	str	r2, [r3, #24]
 800178c:	4620      	mov	r0, r4
 800178e:	f7ff ffd9 	bl	8001744 <Get_Max_Lun>
 8001792:	4620      	mov	r0, r4
 8001794:	bd10      	pop	{r4, pc}
 8001796:	bf00      	nop
 8001798:	200011f0 	.word	0x200011f0
 800179c:	08001745 	.word	0x08001745

080017a0 <MASS_GetStringDescriptor>:
 80017a0:	4905      	ldr	r1, [pc, #20]	; (80017b8 <MASS_GetStringDescriptor+0x18>)
 80017a2:	680b      	ldr	r3, [r1, #0]
 80017a4:	78db      	ldrb	r3, [r3, #3]
 80017a6:	2b05      	cmp	r3, #5
 80017a8:	d901      	bls.n	80017ae <MASS_GetStringDescriptor+0xe>
 80017aa:	2000      	movs	r0, #0
 80017ac:	4770      	bx	lr
 80017ae:	4a03      	ldr	r2, [pc, #12]	; (80017bc <MASS_GetStringDescriptor+0x1c>)
 80017b0:	eb02 01c3 	add.w	r1, r2, r3, lsl #3
 80017b4:	f00e b9f6 	b.w	800fba4 <Standard_GetDescriptorData>
 80017b8:	200011f0 	.word	0x200011f0
 80017bc:	200000cc 	.word	0x200000cc

080017c0 <MASS_GetConfigDescriptor>:
 80017c0:	4901      	ldr	r1, [pc, #4]	; (80017c8 <MASS_GetConfigDescriptor+0x8>)
 80017c2:	f00e b9ef 	b.w	800fba4 <Standard_GetDescriptorData>
 80017c6:	bf00      	nop
 80017c8:	200000f4 	.word	0x200000f4

080017cc <MASS_GetDeviceDescriptor>:
 80017cc:	4901      	ldr	r1, [pc, #4]	; (80017d4 <MASS_GetDeviceDescriptor+0x8>)
 80017ce:	f00e b9e9 	b.w	800fba4 <Standard_GetDescriptorData>
 80017d2:	bf00      	nop
 80017d4:	200000fc 	.word	0x200000fc

080017d8 <MASS_NoData_Setup>:
 80017d8:	b510      	push	{r4, lr}
 80017da:	4b0f      	ldr	r3, [pc, #60]	; (8001818 <MASS_NoData_Setup+0x40>)
 80017dc:	681b      	ldr	r3, [r3, #0]
 80017de:	7819      	ldrb	r1, [r3, #0]
 80017e0:	f001 027f 	and.w	r2, r1, #127	; 0x7f
 80017e4:	2a21      	cmp	r2, #33	; 0x21
 80017e6:	d001      	beq.n	80017ec <MASS_NoData_Setup+0x14>
 80017e8:	2002      	movs	r0, #2
 80017ea:	bd10      	pop	{r4, pc}
 80017ec:	28ff      	cmp	r0, #255	; 0xff
 80017ee:	d1fb      	bne.n	80017e8 <MASS_NoData_Setup+0x10>
 80017f0:	8858      	ldrh	r0, [r3, #2]
 80017f2:	2800      	cmp	r0, #0
 80017f4:	d1f8      	bne.n	80017e8 <MASS_NoData_Setup+0x10>
 80017f6:	685c      	ldr	r4, [r3, #4]
 80017f8:	b10c      	cbz	r4, 80017fe <MASS_NoData_Setup+0x26>
 80017fa:	2002      	movs	r0, #2
 80017fc:	bd10      	pop	{r4, pc}
 80017fe:	2001      	movs	r0, #1
 8001800:	f00f f848 	bl	8010894 <ClearDTOG_TX>
 8001804:	2002      	movs	r0, #2
 8001806:	f00f f831 	bl	801086c <ClearDTOG_RX>
 800180a:	4904      	ldr	r1, [pc, #16]	; (800181c <MASS_NoData_Setup+0x44>)
 800180c:	4b04      	ldr	r3, [pc, #16]	; (8001820 <MASS_NoData_Setup+0x48>)
 800180e:	4a05      	ldr	r2, [pc, #20]	; (8001824 <MASS_NoData_Setup+0x4c>)
 8001810:	6019      	str	r1, [r3, #0]
 8001812:	7014      	strb	r4, [r2, #0]
 8001814:	4620      	mov	r0, r4
 8001816:	bd10      	pop	{r4, pc}
 8001818:	200011f0 	.word	0x200011f0
 800181c:	43425355 	.word	0x43425355
 8001820:	20000c98 	.word	0x20000c98
 8001824:	20000cba 	.word	0x20000cba

08001828 <Mass_Storage_SetConfiguration>:
 8001828:	b508      	push	{r3, lr}
 800182a:	4908      	ldr	r1, [pc, #32]	; (800184c <Mass_Storage_SetConfiguration+0x24>)
 800182c:	6808      	ldr	r0, [r1, #0]
 800182e:	7a83      	ldrb	r3, [r0, #10]
 8001830:	b15b      	cbz	r3, 800184a <Mass_Storage_SetConfiguration+0x22>
 8001832:	4a07      	ldr	r2, [pc, #28]	; (8001850 <Mass_Storage_SetConfiguration+0x28>)
 8001834:	2105      	movs	r1, #5
 8001836:	6011      	str	r1, [r2, #0]
 8001838:	2001      	movs	r0, #1
 800183a:	f00f f82b 	bl	8010894 <ClearDTOG_TX>
 800183e:	2002      	movs	r0, #2
 8001840:	f00f f814 	bl	801086c <ClearDTOG_RX>
 8001844:	4b03      	ldr	r3, [pc, #12]	; (8001854 <Mass_Storage_SetConfiguration+0x2c>)
 8001846:	2200      	movs	r2, #0
 8001848:	701a      	strb	r2, [r3, #0]
 800184a:	bd08      	pop	{r3, pc}
 800184c:	200011f0 	.word	0x200011f0
 8001850:	2000092c 	.word	0x2000092c
 8001854:	20000cba 	.word	0x20000cba

08001858 <Mass_Storage_ClearFeature>:
 8001858:	4804      	ldr	r0, [pc, #16]	; (800186c <Mass_Storage_ClearFeature+0x14>)
 800185a:	4b05      	ldr	r3, [pc, #20]	; (8001870 <Mass_Storage_ClearFeature+0x18>)
 800185c:	6802      	ldr	r2, [r0, #0]
 800185e:	429a      	cmp	r2, r3
 8001860:	d002      	beq.n	8001868 <Mass_Storage_ClearFeature+0x10>
 8001862:	2002      	movs	r0, #2
 8001864:	f7ff bec0 	b.w	80015e8 <Bot_Abort>
 8001868:	4770      	bx	lr
 800186a:	bf00      	nop
 800186c:	20000c98 	.word	0x20000c98
 8001870:	43425355 	.word	0x43425355

08001874 <MASS_Reset>:
 8001874:	b570      	push	{r4, r5, r6, lr}
 8001876:	4a33      	ldr	r2, [pc, #204]	; (8001944 <MASS_Reset+0xd0>)
 8001878:	4c33      	ldr	r4, [pc, #204]	; (8001948 <MASS_Reset+0xd4>)
 800187a:	6810      	ldr	r0, [r2, #0]
 800187c:	f894 c007 	ldrb.w	ip, [r4, #7]
 8001880:	4d32      	ldr	r5, [pc, #200]	; (800194c <MASS_Reset+0xd8>)
 8001882:	2400      	movs	r4, #0
 8001884:	f880 c009 	strb.w	ip, [r0, #9]
 8001888:	72ac      	strb	r4, [r5, #10]
 800188a:	4620      	mov	r0, r4
 800188c:	f00e fe72 	bl	8010574 <SetBTABLE>
 8001890:	4620      	mov	r0, r4
 8001892:	f44f 7100 	mov.w	r1, #512	; 0x200
 8001896:	f00e fe8d 	bl	80105b4 <SetEPType>
 800189a:	4d2d      	ldr	r5, [pc, #180]	; (8001950 <MASS_Reset+0xdc>)
 800189c:	4620      	mov	r0, r4
 800189e:	2120      	movs	r1, #32
 80018a0:	f00e fea0 	bl	80105e4 <SetEPTxStatus>
 80018a4:	4620      	mov	r0, r4
 80018a6:	2118      	movs	r1, #24
 80018a8:	f00f f836 	bl	8010918 <SetEPRxAddr>
 80018ac:	f895 1064 	ldrb.w	r1, [r5, #100]	; 0x64
 80018b0:	4620      	mov	r0, r4
 80018b2:	f00f f88b 	bl	80109cc <SetEPRxCount>
 80018b6:	2158      	movs	r1, #88	; 0x58
 80018b8:	4620      	mov	r0, r4
 80018ba:	f00f f81b 	bl	80108f4 <SetEPTxAddr>
 80018be:	4620      	mov	r0, r4
 80018c0:	f00e ff3c 	bl	801073c <Clear_Status_Out>
 80018c4:	4620      	mov	r0, r4
 80018c6:	f00e ff07 	bl	80106d8 <SetEPRxValid>
 80018ca:	2001      	movs	r0, #1
 80018cc:	4621      	mov	r1, r4
 80018ce:	f00e fe71 	bl	80105b4 <SetEPType>
 80018d2:	2001      	movs	r0, #1
 80018d4:	2198      	movs	r1, #152	; 0x98
 80018d6:	f00f f80d 	bl	80108f4 <SetEPTxAddr>
 80018da:	2001      	movs	r0, #1
 80018dc:	2120      	movs	r1, #32
 80018de:	f00e fe81 	bl	80105e4 <SetEPTxStatus>
 80018e2:	2001      	movs	r0, #1
 80018e4:	4621      	mov	r1, r4
 80018e6:	f00e fe9d 	bl	8010624 <SetEPRxStatus>
 80018ea:	2002      	movs	r0, #2
 80018ec:	4621      	mov	r1, r4
 80018ee:	f00e fe61 	bl	80105b4 <SetEPType>
 80018f2:	2002      	movs	r0, #2
 80018f4:	21d8      	movs	r1, #216	; 0xd8
 80018f6:	f00f f80f 	bl	8010918 <SetEPRxAddr>
 80018fa:	2002      	movs	r0, #2
 80018fc:	f895 1064 	ldrb.w	r1, [r5, #100]	; 0x64
 8001900:	f00f f864 	bl	80109cc <SetEPRxCount>
 8001904:	2002      	movs	r0, #2
 8001906:	f44f 5140 	mov.w	r1, #12288	; 0x3000
 800190a:	f00e fe8b 	bl	8010624 <SetEPRxStatus>
 800190e:	4621      	mov	r1, r4
 8001910:	2002      	movs	r0, #2
 8001912:	f00e fe67 	bl	80105e4 <SetEPTxStatus>
 8001916:	f895 1064 	ldrb.w	r1, [r5, #100]	; 0x64
 800191a:	4620      	mov	r0, r4
 800191c:	f00f f856 	bl	80109cc <SetEPRxCount>
 8001920:	4620      	mov	r0, r4
 8001922:	f00e fed9 	bl	80106d8 <SetEPRxValid>
 8001926:	4620      	mov	r0, r4
 8001928:	f00e fbc4 	bl	80100b4 <SetDeviceAddress>
 800192c:	4b09      	ldr	r3, [pc, #36]	; (8001954 <MASS_Reset+0xe0>)
 800192e:	2101      	movs	r1, #1
 8001930:	6019      	str	r1, [r3, #0]
 8001932:	4a09      	ldr	r2, [pc, #36]	; (8001958 <MASS_Reset+0xe4>)
 8001934:	4809      	ldr	r0, [pc, #36]	; (800195c <MASS_Reset+0xe8>)
 8001936:	4b0a      	ldr	r3, [pc, #40]	; (8001960 <MASS_Reset+0xec>)
 8001938:	6002      	str	r2, [r0, #0]
 800193a:	701c      	strb	r4, [r3, #0]
 800193c:	e8bd 4070 	ldmia.w	sp!, {r4, r5, r6, lr}
 8001940:	f7ff b88a 	b.w	8000a58 <USB_NotConfigured_LED>
 8001944:	200011f0 	.word	0x200011f0
 8001948:	08013ce4 	.word	0x08013ce4
 800194c:	200011d0 	.word	0x200011d0
 8001950:	200000cc 	.word	0x200000cc
 8001954:	2000092c 	.word	0x2000092c
 8001958:	43425355 	.word	0x43425355
 800195c:	20000c98 	.word	0x20000c98
 8001960:	20000cba 	.word	0x20000cba

08001964 <MASS_init>:
 8001964:	b510      	push	{r4, lr}
 8001966:	f7ff f881 	bl	8000a6c <Get_SerialNum>
 800196a:	4905      	ldr	r1, [pc, #20]	; (8001980 <MASS_init+0x1c>)
 800196c:	2400      	movs	r4, #0
 800196e:	6808      	ldr	r0, [r1, #0]
 8001970:	7284      	strb	r4, [r0, #10]
 8001972:	f000 f809 	bl	8001988 <PowerOn>
 8001976:	f00f fa13 	bl	8010da0 <USB_SIL_Init>
 800197a:	4b02      	ldr	r3, [pc, #8]	; (8001984 <MASS_init+0x20>)
 800197c:	601c      	str	r4, [r3, #0]
 800197e:	bd10      	pop	{r4, pc}
 8001980:	200011f0 	.word	0x200011f0
 8001984:	2000092c 	.word	0x2000092c

08001988 <PowerOn>:
 8001988:	b510      	push	{r4, lr}
 800198a:	2001      	movs	r0, #1
 800198c:	f7ff f86c 	bl	8000a68 <USB_Cable_Config>
 8001990:	4b06      	ldr	r3, [pc, #24]	; (80019ac <PowerOn+0x24>)
 8001992:	2401      	movs	r4, #1
 8001994:	601c      	str	r4, [r3, #0]
 8001996:	4806      	ldr	r0, [pc, #24]	; (80019b0 <PowerOn+0x28>)
 8001998:	4c06      	ldr	r4, [pc, #24]	; (80019b4 <PowerOn+0x2c>)
 800199a:	2200      	movs	r2, #0
 800199c:	f44f 51e0 	mov.w	r1, #7168	; 0x1c00
 80019a0:	8001      	strh	r1, [r0, #0]
 80019a2:	601a      	str	r2, [r3, #0]
 80019a4:	4610      	mov	r0, r2
 80019a6:	6022      	str	r2, [r4, #0]
 80019a8:	6019      	str	r1, [r3, #0]
 80019aa:	bd10      	pop	{r4, pc}
 80019ac:	40005c40 	.word	0x40005c40
 80019b0:	200011f4 	.word	0x200011f4
 80019b4:	40005c44 	.word	0x40005c44

080019b8 <PowerOff>:
 80019b8:	b538      	push	{r3, r4, r5, lr}
 80019ba:	4906      	ldr	r1, [pc, #24]	; (80019d4 <PowerOff+0x1c>)
 80019bc:	4d06      	ldr	r5, [pc, #24]	; (80019d8 <PowerOff+0x20>)
 80019be:	2400      	movs	r4, #0
 80019c0:	2201      	movs	r2, #1
 80019c2:	4620      	mov	r0, r4
 80019c4:	602a      	str	r2, [r5, #0]
 80019c6:	600c      	str	r4, [r1, #0]
 80019c8:	f7ff f84e 	bl	8000a68 <USB_Cable_Config>
 80019cc:	2303      	movs	r3, #3
 80019ce:	602b      	str	r3, [r5, #0]
 80019d0:	4620      	mov	r0, r4
 80019d2:	bd38      	pop	{r3, r4, r5, pc}
 80019d4:	40005c44 	.word	0x40005c44
 80019d8:	40005c40 	.word	0x40005c40

080019dc <Suspend>:
 80019dc:	b510      	push	{r4, lr}
 80019de:	2200      	movs	r2, #0
 80019e0:	480c      	ldr	r0, [pc, #48]	; (8001a14 <Suspend+0x38>)
 80019e2:	f44f 6100 	mov.w	r1, #2048	; 0x800
 80019e6:	f00c f92e 	bl	800dc46 <GPIO_WriteBit>
 80019ea:	2120      	movs	r1, #32
 80019ec:	2200      	movs	r2, #0
 80019ee:	480a      	ldr	r0, [pc, #40]	; (8001a18 <Suspend+0x3c>)
 80019f0:	f00c f929 	bl	800dc46 <GPIO_WriteBit>
 80019f4:	4b09      	ldr	r3, [pc, #36]	; (8001a1c <Suspend+0x40>)
 80019f6:	6818      	ldr	r0, [r3, #0]
 80019f8:	fa1f fc80 	uxth.w	ip, r0
 80019fc:	f04c 0208 	orr.w	r2, ip, #8
 8001a00:	601a      	str	r2, [r3, #0]
 8001a02:	6819      	ldr	r1, [r3, #0]
 8001a04:	b288      	uxth	r0, r1
 8001a06:	f040 0204 	orr.w	r2, r0, #4
 8001a0a:	601a      	str	r2, [r3, #0]
 8001a0c:	e8bd 4010 	ldmia.w	sp!, {r4, lr}
 8001a10:	f7fe bfd2 	b.w	80009b8 <Enter_LowPowerMode>
 8001a14:	40010c00 	.word	0x40010c00
 8001a18:	40010800 	.word	0x40010800
 8001a1c:	40005c40 	.word	0x40005c40

08001a20 <Resume_Init>:
 8001a20:	b510      	push	{r4, lr}
 8001a22:	4c0c      	ldr	r4, [pc, #48]	; (8001a54 <Resume_Init+0x34>)
 8001a24:	f64f 71fb 	movw	r1, #65531	; 0xfffb
 8001a28:	6822      	ldr	r2, [r4, #0]
 8001a2a:	ea02 0001 	and.w	r0, r2, r1
 8001a2e:	6020      	str	r0, [r4, #0]
 8001a30:	f7fe ffc8 	bl	80009c4 <Leave_LowPowerMode>
 8001a34:	f44f 431f 	mov.w	r3, #40704	; 0x9f00
 8001a38:	2120      	movs	r1, #32
 8001a3a:	2201      	movs	r2, #1
 8001a3c:	4806      	ldr	r0, [pc, #24]	; (8001a58 <Resume_Init+0x38>)
 8001a3e:	6023      	str	r3, [r4, #0]
 8001a40:	f00c f901 	bl	800dc46 <GPIO_WriteBit>
 8001a44:	4805      	ldr	r0, [pc, #20]	; (8001a5c <Resume_Init+0x3c>)
 8001a46:	f44f 6100 	mov.w	r1, #2048	; 0x800
 8001a4a:	2201      	movs	r2, #1
 8001a4c:	e8bd 4010 	ldmia.w	sp!, {r4, lr}
 8001a50:	f00c b8f9 	b.w	800dc46 <GPIO_WriteBit>
 8001a54:	40005c40 	.word	0x40005c40
 8001a58:	40010800 	.word	0x40010800
 8001a5c:	40010c00 	.word	0x40010c00

08001a60 <Resume>:
 8001a60:	b538      	push	{r3, r4, r5, lr}
 8001a62:	4c37      	ldr	r4, [pc, #220]	; (8001b40 <Resume+0xe0>)
 8001a64:	2807      	cmp	r0, #7
 8001a66:	bf18      	it	ne
 8001a68:	7020      	strbne	r0, [r4, #0]
 8001a6a:	7823      	ldrb	r3, [r4, #0]
 8001a6c:	2b05      	cmp	r3, #5
 8001a6e:	d814      	bhi.n	8001a9a <Resume+0x3a>
 8001a70:	e8df f003 	tbb	[pc, r3]
 8001a74:	4f4a3016 	.word	0x4f4a3016
 8001a78:	0359      	.short	0x0359
 8001a7a:	7863      	ldrb	r3, [r4, #1]
 8001a7c:	1e59      	subs	r1, r3, #1
 8001a7e:	7061      	strb	r1, [r4, #1]
 8001a80:	7860      	ldrb	r0, [r4, #1]
 8001a82:	b960      	cbnz	r0, 8001a9e <Resume+0x3e>
 8001a84:	4a2f      	ldr	r2, [pc, #188]	; (8001b44 <Resume+0xe4>)
 8001a86:	f64f 7cef 	movw	ip, #65519	; 0xffef
 8001a8a:	6813      	ldr	r3, [r2, #0]
 8001a8c:	482c      	ldr	r0, [pc, #176]	; (8001b40 <Resume+0xe0>)
 8001a8e:	ea03 010c 	and.w	r1, r3, ip
 8001a92:	6011      	str	r1, [r2, #0]
 8001a94:	2206      	movs	r2, #6
 8001a96:	7002      	strb	r2, [r0, #0]
 8001a98:	bd38      	pop	{r3, r4, r5, pc}
 8001a9a:	2006      	movs	r0, #6
 8001a9c:	7020      	strb	r0, [r4, #0]
 8001a9e:	bd38      	pop	{r3, r4, r5, pc}
 8001aa0:	4d28      	ldr	r5, [pc, #160]	; (8001b44 <Resume+0xe4>)
 8001aa2:	f64f 7cfb 	movw	ip, #65531	; 0xfffb
 8001aa6:	682a      	ldr	r2, [r5, #0]
 8001aa8:	ea02 010c 	and.w	r1, r2, ip
 8001aac:	6029      	str	r1, [r5, #0]
 8001aae:	f7fe ff89 	bl	80009c4 <Leave_LowPowerMode>
 8001ab2:	f44f 431f 	mov.w	r3, #40704	; 0x9f00
 8001ab6:	4824      	ldr	r0, [pc, #144]	; (8001b48 <Resume+0xe8>)
 8001ab8:	2120      	movs	r1, #32
 8001aba:	2201      	movs	r2, #1
 8001abc:	602b      	str	r3, [r5, #0]
 8001abe:	f00c f8c2 	bl	800dc46 <GPIO_WriteBit>
 8001ac2:	4822      	ldr	r0, [pc, #136]	; (8001b4c <Resume+0xec>)
 8001ac4:	f44f 6100 	mov.w	r1, #2048	; 0x800
 8001ac8:	2201      	movs	r2, #1
 8001aca:	f00c f8bc 	bl	800dc46 <GPIO_WriteBit>
 8001ace:	2006      	movs	r0, #6
 8001ad0:	7020      	strb	r0, [r4, #0]
 8001ad2:	bd38      	pop	{r3, r4, r5, pc}
 8001ad4:	4d1b      	ldr	r5, [pc, #108]	; (8001b44 <Resume+0xe4>)
 8001ad6:	f64f 7efb 	movw	lr, #65531	; 0xfffb
 8001ada:	682a      	ldr	r2, [r5, #0]
 8001adc:	ea02 010e 	and.w	r1, r2, lr
 8001ae0:	6029      	str	r1, [r5, #0]
 8001ae2:	f7fe ff6f 	bl	80009c4 <Leave_LowPowerMode>
 8001ae6:	f44f 431f 	mov.w	r3, #40704	; 0x9f00
 8001aea:	4817      	ldr	r0, [pc, #92]	; (8001b48 <Resume+0xe8>)
 8001aec:	2120      	movs	r1, #32
 8001aee:	2201      	movs	r2, #1
 8001af0:	602b      	str	r3, [r5, #0]
 8001af2:	f00c f8a8 	bl	800dc46 <GPIO_WriteBit>
 8001af6:	4815      	ldr	r0, [pc, #84]	; (8001b4c <Resume+0xec>)
 8001af8:	f44f 6100 	mov.w	r1, #2048	; 0x800
 8001afc:	2201      	movs	r2, #1
 8001afe:	f00c f8a2 	bl	800dc46 <GPIO_WriteBit>
 8001b02:	2004      	movs	r0, #4
 8001b04:	7020      	strb	r0, [r4, #0]
 8001b06:	bd38      	pop	{r3, r4, r5, pc}
 8001b08:	2302      	movs	r3, #2
 8001b0a:	2003      	movs	r0, #3
 8001b0c:	7063      	strb	r3, [r4, #1]
 8001b0e:	7020      	strb	r0, [r4, #0]
 8001b10:	bd38      	pop	{r3, r4, r5, pc}
 8001b12:	7860      	ldrb	r0, [r4, #1]
 8001b14:	1e42      	subs	r2, r0, #1
 8001b16:	7062      	strb	r2, [r4, #1]
 8001b18:	7861      	ldrb	r1, [r4, #1]
 8001b1a:	2900      	cmp	r1, #0
 8001b1c:	d1bf      	bne.n	8001a9e <Resume+0x3e>
 8001b1e:	4b08      	ldr	r3, [pc, #32]	; (8001b40 <Resume+0xe0>)
 8001b20:	2104      	movs	r1, #4
 8001b22:	7019      	strb	r1, [r3, #0]
 8001b24:	bd38      	pop	{r3, r4, r5, pc}
 8001b26:	4b07      	ldr	r3, [pc, #28]	; (8001b44 <Resume+0xe4>)
 8001b28:	2005      	movs	r0, #5
 8001b2a:	681a      	ldr	r2, [r3, #0]
 8001b2c:	fa1f fc82 	uxth.w	ip, r2
 8001b30:	f04c 0110 	orr.w	r1, ip, #16
 8001b34:	220a      	movs	r2, #10
 8001b36:	6019      	str	r1, [r3, #0]
 8001b38:	7020      	strb	r0, [r4, #0]
 8001b3a:	7062      	strb	r2, [r4, #1]
 8001b3c:	bd38      	pop	{r3, r4, r5, pc}
 8001b3e:	bf00      	nop
 8001b40:	20000d18 	.word	0x20000d18
 8001b44:	40005c40 	.word	0x40005c40
 8001b48:	40010800 	.word	0x40010800
 8001b4c:	40010c00 	.word	0x40010c00

08001b50 <SCSI_Inquiry_Cmd>:
 8001b50:	4b09      	ldr	r3, [pc, #36]	; (8001b78 <SCSI_Inquiry_Cmd+0x28>)
 8001b52:	7c1a      	ldrb	r2, [r3, #16]
 8001b54:	f012 0f01 	tst.w	r2, #1
 8001b58:	d10b      	bne.n	8001b72 <SCSI_Inquiry_Cmd+0x22>
 8001b5a:	7cd9      	ldrb	r1, [r3, #19]
 8001b5c:	4a07      	ldr	r2, [pc, #28]	; (8001b7c <SCSI_Inquiry_Cmd+0x2c>)
 8001b5e:	4b08      	ldr	r3, [pc, #32]	; (8001b80 <SCSI_Inquiry_Cmd+0x30>)
 8001b60:	2924      	cmp	r1, #36	; 0x24
 8001b62:	bf28      	it	cs
 8001b64:	2124      	movcs	r1, #36	; 0x24
 8001b66:	2800      	cmp	r0, #0
 8001b68:	bf14      	ite	ne
 8001b6a:	4610      	movne	r0, r2
 8001b6c:	4618      	moveq	r0, r3
 8001b6e:	f7ff bd03 	b.w	8001578 <Transfer_Data_Request>
 8001b72:	4804      	ldr	r0, [pc, #16]	; (8001b84 <SCSI_Inquiry_Cmd+0x34>)
 8001b74:	2105      	movs	r1, #5
 8001b76:	e7fa      	b.n	8001b6e <SCSI_Inquiry_Cmd+0x1e>
 8001b78:	20000c98 	.word	0x20000c98
 8001b7c:	20000028 	.word	0x20000028
 8001b80:	20000004 	.word	0x20000004
 8001b84:	20000914 	.word	0x20000914

08001b88 <SCSI_ReadFormatCapacity_Cmd>:
 8001b88:	e92d 41f0 	stmdb	sp!, {r4, r5, r6, r7, r8, lr}
 8001b8c:	4604      	mov	r4, r0
 8001b8e:	f7ff f8a3 	bl	8000cd8 <MAL_GetStatus>
 8001b92:	b9e0      	cbnz	r0, 8001bce <SCSI_ReadFormatCapacity_Cmd+0x46>
 8001b94:	4815      	ldr	r0, [pc, #84]	; (8001bec <SCSI_ReadFormatCapacity_Cmd+0x64>)
 8001b96:	4916      	ldr	r1, [pc, #88]	; (8001bf0 <SCSI_ReadFormatCapacity_Cmd+0x68>)
 8001b98:	4b16      	ldr	r3, [pc, #88]	; (8001bf4 <SCSI_ReadFormatCapacity_Cmd+0x6c>)
 8001b9a:	f850 2024 	ldr.w	r2, [r0, r4, lsl #2]
 8001b9e:	f851 4024 	ldr.w	r4, [r1, r4, lsl #2]
 8001ba2:	ea4f 6812 	mov.w	r8, r2, lsr #24
 8001ba6:	ea4f 4c12 	mov.w	ip, r2, lsr #16
 8001baa:	0a17      	lsrs	r7, r2, #8
 8001bac:	0c26      	lsrs	r6, r4, #16
 8001bae:	0a25      	lsrs	r5, r4, #8
 8001bb0:	4618      	mov	r0, r3
 8001bb2:	210c      	movs	r1, #12
 8001bb4:	f883 8004 	strb.w	r8, [r3, #4]
 8001bb8:	f883 c005 	strb.w	ip, [r3, #5]
 8001bbc:	719f      	strb	r7, [r3, #6]
 8001bbe:	71da      	strb	r2, [r3, #7]
 8001bc0:	725e      	strb	r6, [r3, #9]
 8001bc2:	729d      	strb	r5, [r3, #10]
 8001bc4:	72dc      	strb	r4, [r3, #11]
 8001bc6:	e8bd 41f0 	ldmia.w	sp!, {r4, r5, r6, r7, r8, lr}
 8001bca:	f7ff bcd5 	b.w	8001578 <Transfer_Data_Request>
 8001bce:	4b0a      	ldr	r3, [pc, #40]	; (8001bf8 <SCSI_ReadFormatCapacity_Cmd+0x70>)
 8001bd0:	2202      	movs	r2, #2
 8001bd2:	2001      	movs	r0, #1
 8001bd4:	709a      	strb	r2, [r3, #2]
 8001bd6:	223a      	movs	r2, #58	; 0x3a
 8001bd8:	4601      	mov	r1, r0
 8001bda:	731a      	strb	r2, [r3, #12]
 8001bdc:	f7ff fce6 	bl	80015ac <Set_CSW>
 8001be0:	2000      	movs	r0, #0
 8001be2:	e8bd 41f0 	ldmia.w	sp!, {r4, r5, r6, r7, r8, lr}
 8001be6:	f7ff bcff 	b.w	80015e8 <Bot_Abort>
 8001bea:	bf00      	nop
 8001bec:	20000c84 	.word	0x20000c84
 8001bf0:	20000c7c 	.word	0x20000c7c
 8001bf4:	2000006c 	.word	0x2000006c
 8001bf8:	20000058 	.word	0x20000058

08001bfc <SCSI_ReadCapacity10_Cmd>:
 8001bfc:	e92d 47f0 	stmdb	sp!, {r4, r5, r6, r7, r8, r9, sl, lr}
 8001c00:	4605      	mov	r5, r0
 8001c02:	f7ff f869 	bl	8000cd8 <MAL_GetStatus>
 8001c06:	bb08      	cbnz	r0, 8001c4c <SCSI_ReadCapacity10_Cmd+0x50>
 8001c08:	4917      	ldr	r1, [pc, #92]	; (8001c68 <SCSI_ReadCapacity10_Cmd+0x6c>)
 8001c0a:	4818      	ldr	r0, [pc, #96]	; (8001c6c <SCSI_ReadCapacity10_Cmd+0x70>)
 8001c0c:	f851 4025 	ldr.w	r4, [r1, r5, lsl #2]
 8001c10:	4b17      	ldr	r3, [pc, #92]	; (8001c70 <SCSI_ReadCapacity10_Cmd+0x74>)
 8001c12:	f850 2025 	ldr.w	r2, [r0, r5, lsl #2]
 8001c16:	3c01      	subs	r4, #1
 8001c18:	ea4f 6814 	mov.w	r8, r4, lsr #24
 8001c1c:	ea4f 4c14 	mov.w	ip, r4, lsr #16
 8001c20:	0a27      	lsrs	r7, r4, #8
 8001c22:	0e16      	lsrs	r6, r2, #24
 8001c24:	ea4f 4912 	mov.w	r9, r2, lsr #16
 8001c28:	0a15      	lsrs	r5, r2, #8
 8001c2a:	4618      	mov	r0, r3
 8001c2c:	2108      	movs	r1, #8
 8001c2e:	f883 8000 	strb.w	r8, [r3]
 8001c32:	f883 c001 	strb.w	ip, [r3, #1]
 8001c36:	709f      	strb	r7, [r3, #2]
 8001c38:	70dc      	strb	r4, [r3, #3]
 8001c3a:	711e      	strb	r6, [r3, #4]
 8001c3c:	f883 9005 	strb.w	r9, [r3, #5]
 8001c40:	719d      	strb	r5, [r3, #6]
 8001c42:	71da      	strb	r2, [r3, #7]
 8001c44:	e8bd 47f0 	ldmia.w	sp!, {r4, r5, r6, r7, r8, r9, sl, lr}
 8001c48:	f7ff bc96 	b.w	8001578 <Transfer_Data_Request>
 8001c4c:	4b09      	ldr	r3, [pc, #36]	; (8001c74 <SCSI_ReadCapacity10_Cmd+0x78>)
 8001c4e:	2202      	movs	r2, #2
 8001c50:	2001      	movs	r0, #1
 8001c52:	709a      	strb	r2, [r3, #2]
 8001c54:	223a      	movs	r2, #58	; 0x3a
 8001c56:	4601      	mov	r1, r0
 8001c58:	731a      	strb	r2, [r3, #12]
 8001c5a:	f7ff fca7 	bl	80015ac <Set_CSW>
 8001c5e:	2000      	movs	r0, #0
 8001c60:	e8bd 47f0 	ldmia.w	sp!, {r4, r5, r6, r7, r8, r9, sl, lr}
 8001c64:	f7ff bcc0 	b.w	80015e8 <Bot_Abort>
 8001c68:	20000c84 	.word	0x20000c84
 8001c6c:	20000c7c 	.word	0x20000c7c
 8001c70:	2000091c 	.word	0x2000091c
 8001c74:	20000058 	.word	0x20000058

08001c78 <SCSI_ModeSense6_Cmd>:
 8001c78:	4801      	ldr	r0, [pc, #4]	; (8001c80 <SCSI_ModeSense6_Cmd+0x8>)
 8001c7a:	2104      	movs	r1, #4
 8001c7c:	f7ff bc7c 	b.w	8001578 <Transfer_Data_Request>
 8001c80:	2000004c 	.word	0x2000004c

08001c84 <SCSI_ModeSense10_Cmd>:
 8001c84:	4801      	ldr	r0, [pc, #4]	; (8001c8c <SCSI_ModeSense10_Cmd+0x8>)
 8001c86:	2108      	movs	r1, #8
 8001c88:	f7ff bc76 	b.w	8001578 <Transfer_Data_Request>
 8001c8c:	20000050 	.word	0x20000050

08001c90 <SCSI_RequestSense_Cmd>:
 8001c90:	4b03      	ldr	r3, [pc, #12]	; (8001ca0 <SCSI_RequestSense_Cmd+0x10>)
 8001c92:	4804      	ldr	r0, [pc, #16]	; (8001ca4 <SCSI_RequestSense_Cmd+0x14>)
 8001c94:	7cd9      	ldrb	r1, [r3, #19]
 8001c96:	2912      	cmp	r1, #18
 8001c98:	bf28      	it	cs
 8001c9a:	2112      	movcs	r1, #18
 8001c9c:	f7ff bc6c 	b.w	8001578 <Transfer_Data_Request>
 8001ca0:	20000c98 	.word	0x20000c98
 8001ca4:	20000058 	.word	0x20000058

08001ca8 <Set_Scsi_Sense_Data>:
 8001ca8:	4b01      	ldr	r3, [pc, #4]	; (8001cb0 <Set_Scsi_Sense_Data+0x8>)
 8001caa:	7099      	strb	r1, [r3, #2]
 8001cac:	731a      	strb	r2, [r3, #12]
 8001cae:	4770      	bx	lr
 8001cb0:	20000058 	.word	0x20000058

08001cb4 <SCSI_Start_Stop_Unit_Cmd>:
 8001cb4:	2000      	movs	r0, #0
 8001cb6:	2101      	movs	r1, #1
 8001cb8:	f7ff bc78 	b.w	80015ac <Set_CSW>

08001cbc <SCSI_Read10_Cmd>:
 8001cbc:	e92d 41f0 	stmdb	sp!, {r4, r5, r6, r7, r8, lr}
 8001cc0:	4b25      	ldr	r3, [pc, #148]	; (8001d58 <SCSI_Read10_Cmd+0x9c>)
 8001cc2:	781c      	ldrb	r4, [r3, #0]
 8001cc4:	b11c      	cbz	r4, 8001cce <SCSI_Read10_Cmd+0x12>
 8001cc6:	2c02      	cmp	r4, #2
 8001cc8:	d031      	beq.n	8001d2e <SCSI_Read10_Cmd+0x72>
 8001cca:	e8bd 81f0 	ldmia.w	sp!, {r4, r5, r6, r7, r8, pc}
 8001cce:	4e23      	ldr	r6, [pc, #140]	; (8001d5c <SCSI_Read10_Cmd+0xa0>)
 8001cd0:	f8df c090 	ldr.w	ip, [pc, #144]	; 8001d64 <SCSI_Read10_Cmd+0xa8>
 8001cd4:	7b77      	ldrb	r7, [r6, #13]
 8001cd6:	eb02 0801 	add.w	r8, r2, r1
 8001cda:	f85c c027 	ldr.w	ip, [ip, r7, lsl #2]
 8001cde:	45e0      	cmp	r8, ip
 8001ce0:	d817      	bhi.n	8001d12 <SCSI_Read10_Cmd+0x56>
 8001ce2:	f8df c084 	ldr.w	ip, [pc, #132]	; 8001d68 <SCSI_Read10_Cmd+0xac>
 8001ce6:	f8d6 8008 	ldr.w	r8, [r6, #8]
 8001cea:	f85c 7027 	ldr.w	r7, [ip, r7, lsl #2]
 8001cee:	fb07 f502 	mul.w	r5, r7, r2
 8001cf2:	45a8      	cmp	r8, r5
 8001cf4:	d01f      	beq.n	8001d36 <SCSI_Read10_Cmd+0x7a>
 8001cf6:	4620      	mov	r0, r4
 8001cf8:	f7ff fc76 	bl	80015e8 <Bot_Abort>
 8001cfc:	4b18      	ldr	r3, [pc, #96]	; (8001d60 <SCSI_Read10_Cmd+0xa4>)
 8001cfe:	2001      	movs	r0, #1
 8001d00:	4621      	mov	r1, r4
 8001d02:	2205      	movs	r2, #5
 8001d04:	709a      	strb	r2, [r3, #2]
 8001d06:	2224      	movs	r2, #36	; 0x24
 8001d08:	731a      	strb	r2, [r3, #12]
 8001d0a:	e8bd 41f0 	ldmia.w	sp!, {r4, r5, r6, r7, r8, lr}
 8001d0e:	f7ff bc4d 	b.w	80015ac <Set_CSW>
 8001d12:	4620      	mov	r0, r4
 8001d14:	f7ff fc68 	bl	80015e8 <Bot_Abort>
 8001d18:	4b11      	ldr	r3, [pc, #68]	; (8001d60 <SCSI_Read10_Cmd+0xa4>)
 8001d1a:	2205      	movs	r2, #5
 8001d1c:	709a      	strb	r2, [r3, #2]
 8001d1e:	2001      	movs	r0, #1
 8001d20:	2221      	movs	r2, #33	; 0x21
 8001d22:	4621      	mov	r1, r4
 8001d24:	731a      	strb	r2, [r3, #12]
 8001d26:	e8bd 41f0 	ldmia.w	sp!, {r4, r5, r6, r7, r8, lr}
 8001d2a:	f7ff bc3f 	b.w	80015ac <Set_CSW>
 8001d2e:	e8bd 41f0 	ldmia.w	sp!, {r4, r5, r6, r7, r8, lr}
 8001d32:	f7fe bfff 	b.w	8000d34 <Read_Memory>
 8001d36:	f996 400c 	ldrsb.w	r4, [r6, #12]
 8001d3a:	2c00      	cmp	r4, #0
 8001d3c:	db06      	blt.n	8001d4c <SCSI_Read10_Cmd+0x90>
 8001d3e:	2002      	movs	r0, #2
 8001d40:	f7ff fc52 	bl	80015e8 <Bot_Abort>
 8001d44:	2001      	movs	r0, #1
 8001d46:	4b06      	ldr	r3, [pc, #24]	; (8001d60 <SCSI_Read10_Cmd+0xa4>)
 8001d48:	4601      	mov	r1, r0
 8001d4a:	e7da      	b.n	8001d02 <SCSI_Read10_Cmd+0x46>
 8001d4c:	2402      	movs	r4, #2
 8001d4e:	701c      	strb	r4, [r3, #0]
 8001d50:	e8bd 41f0 	ldmia.w	sp!, {r4, r5, r6, r7, r8, lr}
 8001d54:	f7fe bfee 	b.w	8000d34 <Read_Memory>
 8001d58:	20000cba 	.word	0x20000cba
 8001d5c:	20000c98 	.word	0x20000c98
 8001d60:	20000058 	.word	0x20000058
 8001d64:	20000c84 	.word	0x20000c84
 8001d68:	20000c7c 	.word	0x20000c7c

08001d6c <SCSI_Write10_Cmd>:
 8001d6c:	b570      	push	{r4, r5, r6, lr}
 8001d6e:	4b25      	ldr	r3, [pc, #148]	; (8001e04 <SCSI_Write10_Cmd+0x98>)
 8001d70:	460e      	mov	r6, r1
 8001d72:	781c      	ldrb	r4, [r3, #0]
 8001d74:	4615      	mov	r5, r2
 8001d76:	b114      	cbz	r4, 8001d7e <SCSI_Write10_Cmd+0x12>
 8001d78:	2c01      	cmp	r4, #1
 8001d7a:	d02f      	beq.n	8001ddc <SCSI_Write10_Cmd+0x70>
 8001d7c:	bd70      	pop	{r4, r5, r6, pc}
 8001d7e:	4a22      	ldr	r2, [pc, #136]	; (8001e08 <SCSI_Write10_Cmd+0x9c>)
 8001d80:	4822      	ldr	r0, [pc, #136]	; (8001e0c <SCSI_Write10_Cmd+0xa0>)
 8001d82:	7b51      	ldrb	r1, [r2, #13]
 8001d84:	19ae      	adds	r6, r5, r6
 8001d86:	f850 0021 	ldr.w	r0, [r0, r1, lsl #2]
 8001d8a:	4286      	cmp	r6, r0
 8001d8c:	d815      	bhi.n	8001dba <SCSI_Write10_Cmd+0x4e>
 8001d8e:	4e20      	ldr	r6, [pc, #128]	; (8001e10 <SCSI_Write10_Cmd+0xa4>)
 8001d90:	6890      	ldr	r0, [r2, #8]
 8001d92:	f856 1021 	ldr.w	r1, [r6, r1, lsl #2]
 8001d96:	fb01 f505 	mul.w	r5, r1, r5
 8001d9a:	42a8      	cmp	r0, r5
 8001d9c:	d022      	beq.n	8001de4 <SCSI_Write10_Cmd+0x78>
 8001d9e:	2002      	movs	r0, #2
 8001da0:	f7ff fc22 	bl	80015e8 <Bot_Abort>
 8001da4:	4b1b      	ldr	r3, [pc, #108]	; (8001e14 <SCSI_Write10_Cmd+0xa8>)
 8001da6:	2205      	movs	r2, #5
 8001da8:	709a      	strb	r2, [r3, #2]
 8001daa:	2001      	movs	r0, #1
 8001dac:	2224      	movs	r2, #36	; 0x24
 8001dae:	4621      	mov	r1, r4
 8001db0:	731a      	strb	r2, [r3, #12]
 8001db2:	e8bd 4070 	ldmia.w	sp!, {r4, r5, r6, lr}
 8001db6:	f7ff bbf9 	b.w	80015ac <Set_CSW>
 8001dba:	2002      	movs	r0, #2
 8001dbc:	f7ff fc14 	bl	80015e8 <Bot_Abort>
 8001dc0:	4620      	mov	r0, r4
 8001dc2:	f7ff fc11 	bl	80015e8 <Bot_Abort>
 8001dc6:	4b13      	ldr	r3, [pc, #76]	; (8001e14 <SCSI_Write10_Cmd+0xa8>)
 8001dc8:	2205      	movs	r2, #5
 8001dca:	709a      	strb	r2, [r3, #2]
 8001dcc:	2001      	movs	r0, #1
 8001dce:	2221      	movs	r2, #33	; 0x21
 8001dd0:	4621      	mov	r1, r4
 8001dd2:	731a      	strb	r2, [r3, #12]
 8001dd4:	e8bd 4070 	ldmia.w	sp!, {r4, r5, r6, lr}
 8001dd8:	f7ff bbe8 	b.w	80015ac <Set_CSW>
 8001ddc:	e8bd 4070 	ldmia.w	sp!, {r4, r5, r6, lr}
 8001de0:	f7ff b87c 	b.w	8000edc <Write_Memory>
 8001de4:	f992 c00c 	ldrsb.w	ip, [r2, #12]
 8001de8:	f1bc 0f00 	cmp.w	ip, #0
 8001dec:	db08      	blt.n	8001e00 <SCSI_Write10_Cmd+0x94>
 8001dee:	2201      	movs	r2, #1
 8001df0:	2002      	movs	r0, #2
 8001df2:	f44f 5140 	mov.w	r1, #12288	; 0x3000
 8001df6:	701a      	strb	r2, [r3, #0]
 8001df8:	e8bd 4070 	ldmia.w	sp!, {r4, r5, r6, lr}
 8001dfc:	f00e bc12 	b.w	8010624 <SetEPRxStatus>
 8001e00:	4620      	mov	r0, r4
 8001e02:	e7cd      	b.n	8001da0 <SCSI_Write10_Cmd+0x34>
 8001e04:	20000cba 	.word	0x20000cba
 8001e08:	20000c98 	.word	0x20000c98
 8001e0c:	20000c84 	.word	0x20000c84
 8001e10:	20000c7c 	.word	0x20000c7c
 8001e14:	20000058 	.word	0x20000058

08001e18 <SCSI_Verify10_Cmd>:
 8001e18:	4b0d      	ldr	r3, [pc, #52]	; (8001e50 <SCSI_Verify10_Cmd+0x38>)
 8001e1a:	b510      	push	{r4, lr}
 8001e1c:	689a      	ldr	r2, [r3, #8]
 8001e1e:	b91a      	cbnz	r2, 8001e28 <SCSI_Verify10_Cmd+0x10>
 8001e20:	7c18      	ldrb	r0, [r3, #16]
 8001e22:	f010 0004 	ands.w	r0, r0, #4
 8001e26:	d00d      	beq.n	8001e44 <SCSI_Verify10_Cmd+0x2c>
 8001e28:	2002      	movs	r0, #2
 8001e2a:	f7ff fbdd 	bl	80015e8 <Bot_Abort>
 8001e2e:	4b09      	ldr	r3, [pc, #36]	; (8001e54 <SCSI_Verify10_Cmd+0x3c>)
 8001e30:	2205      	movs	r2, #5
 8001e32:	709a      	strb	r2, [r3, #2]
 8001e34:	2001      	movs	r0, #1
 8001e36:	2224      	movs	r2, #36	; 0x24
 8001e38:	2100      	movs	r1, #0
 8001e3a:	731a      	strb	r2, [r3, #12]
 8001e3c:	e8bd 4010 	ldmia.w	sp!, {r4, lr}
 8001e40:	f7ff bbb4 	b.w	80015ac <Set_CSW>
 8001e44:	2101      	movs	r1, #1
 8001e46:	e8bd 4010 	ldmia.w	sp!, {r4, lr}
 8001e4a:	f7ff bbaf 	b.w	80015ac <Set_CSW>
 8001e4e:	bf00      	nop
 8001e50:	20000c98 	.word	0x20000c98
 8001e54:	20000058 	.word	0x20000058

08001e58 <SCSI_Valid_Cmd>:
 8001e58:	4b0b      	ldr	r3, [pc, #44]	; (8001e88 <SCSI_Valid_Cmd+0x30>)
 8001e5a:	b510      	push	{r4, lr}
 8001e5c:	6898      	ldr	r0, [r3, #8]
 8001e5e:	b920      	cbnz	r0, 8001e6a <SCSI_Valid_Cmd+0x12>
 8001e60:	2101      	movs	r1, #1
 8001e62:	e8bd 4010 	ldmia.w	sp!, {r4, lr}
 8001e66:	f7ff bba1 	b.w	80015ac <Set_CSW>
 8001e6a:	2002      	movs	r0, #2
 8001e6c:	f7ff fbbc 	bl	80015e8 <Bot_Abort>
 8001e70:	4b06      	ldr	r3, [pc, #24]	; (8001e8c <SCSI_Valid_Cmd+0x34>)
 8001e72:	2205      	movs	r2, #5
 8001e74:	709a      	strb	r2, [r3, #2]
 8001e76:	2001      	movs	r0, #1
 8001e78:	2220      	movs	r2, #32
 8001e7a:	2100      	movs	r1, #0
 8001e7c:	731a      	strb	r2, [r3, #12]
 8001e7e:	e8bd 4010 	ldmia.w	sp!, {r4, lr}
 8001e82:	f7ff bb93 	b.w	80015ac <Set_CSW>
 8001e86:	bf00      	nop
 8001e88:	20000c98 	.word	0x20000c98
 8001e8c:	20000058 	.word	0x20000058

08001e90 <SCSI_TestUnitReady_Cmd>:
 8001e90:	b510      	push	{r4, lr}
 8001e92:	f7fe ff21 	bl	8000cd8 <MAL_GetStatus>
 8001e96:	b920      	cbnz	r0, 8001ea2 <SCSI_TestUnitReady_Cmd+0x12>
 8001e98:	2101      	movs	r1, #1
 8001e9a:	e8bd 4010 	ldmia.w	sp!, {r4, lr}
 8001e9e:	f7ff bb85 	b.w	80015ac <Set_CSW>
 8001ea2:	4b07      	ldr	r3, [pc, #28]	; (8001ec0 <SCSI_TestUnitReady_Cmd+0x30>)
 8001ea4:	2202      	movs	r2, #2
 8001ea6:	2001      	movs	r0, #1
 8001ea8:	709a      	strb	r2, [r3, #2]
 8001eaa:	223a      	movs	r2, #58	; 0x3a
 8001eac:	4601      	mov	r1, r0
 8001eae:	731a      	strb	r2, [r3, #12]
 8001eb0:	f7ff fb7c 	bl	80015ac <Set_CSW>
 8001eb4:	2000      	movs	r0, #0
 8001eb6:	e8bd 4010 	ldmia.w	sp!, {r4, lr}
 8001eba:	f7ff bb95 	b.w	80015e8 <Bot_Abort>
 8001ebe:	bf00      	nop
 8001ec0:	20000058 	.word	0x20000058

08001ec4 <SCSI_Format_Cmd>:
 8001ec4:	b510      	push	{r4, lr}
 8001ec6:	f7fe ff07 	bl	8000cd8 <MAL_GetStatus>
 8001eca:	b900      	cbnz	r0, 8001ece <SCSI_Format_Cmd+0xa>
 8001ecc:	bd10      	pop	{r4, pc}
 8001ece:	2000      	movs	r0, #0
 8001ed0:	2101      	movs	r1, #1
 8001ed2:	e8bd 4010 	ldmia.w	sp!, {r4, lr}
 8001ed6:	f7ff bb69 	b.w	80015ac <Set_CSW>
 8001eda:	bf00      	nop

08001edc <SCSI_Invalid_Cmd>:
 8001edc:	4b0c      	ldr	r3, [pc, #48]	; (8001f10 <SCSI_Invalid_Cmd+0x34>)
 8001ede:	b510      	push	{r4, lr}
 8001ee0:	6898      	ldr	r0, [r3, #8]
 8001ee2:	b120      	cbz	r0, 8001eee <SCSI_Invalid_Cmd+0x12>
 8001ee4:	f993 300c 	ldrsb.w	r3, [r3, #12]
 8001ee8:	2b00      	cmp	r3, #0
 8001eea:	db0d      	blt.n	8001f08 <SCSI_Invalid_Cmd+0x2c>
 8001eec:	2002      	movs	r0, #2
 8001eee:	f7ff fb7b 	bl	80015e8 <Bot_Abort>
 8001ef2:	4b08      	ldr	r3, [pc, #32]	; (8001f14 <SCSI_Invalid_Cmd+0x38>)
 8001ef4:	2205      	movs	r2, #5
 8001ef6:	709a      	strb	r2, [r3, #2]
 8001ef8:	2001      	movs	r0, #1
 8001efa:	2220      	movs	r2, #32
 8001efc:	2100      	movs	r1, #0
 8001efe:	731a      	strb	r2, [r3, #12]
 8001f00:	e8bd 4010 	ldmia.w	sp!, {r4, lr}
 8001f04:	f7ff bb52 	b.w	80015ac <Set_CSW>
 8001f08:	2000      	movs	r0, #0
 8001f0a:	f7ff fb6d 	bl	80015e8 <Bot_Abort>
 8001f0e:	e7f0      	b.n	8001ef2 <SCSI_Invalid_Cmd+0x16>
 8001f10:	20000c98 	.word	0x20000c98
 8001f14:	20000058 	.word	0x20000058

08001f18 <SCSI_Address_Management>:
 8001f18:	b510      	push	{r4, lr}
 8001f1a:	4c1c      	ldr	r4, [pc, #112]	; (8001f8c <SCSI_Address_Management+0x74>)
 8001f1c:	189a      	adds	r2, r3, r2
 8001f1e:	f854 4020 	ldr.w	r4, [r4, r0, lsl #2]
 8001f22:	42a2      	cmp	r2, r4
 8001f24:	d90f      	bls.n	8001f46 <SCSI_Address_Management+0x2e>
 8001f26:	292a      	cmp	r1, #42	; 0x2a
 8001f28:	d028      	beq.n	8001f7c <SCSI_Address_Management+0x64>
 8001f2a:	2000      	movs	r0, #0
 8001f2c:	f7ff fb5c 	bl	80015e8 <Bot_Abort>
 8001f30:	4b17      	ldr	r3, [pc, #92]	; (8001f90 <SCSI_Address_Management+0x78>)
 8001f32:	2205      	movs	r2, #5
 8001f34:	709a      	strb	r2, [r3, #2]
 8001f36:	2221      	movs	r2, #33	; 0x21
 8001f38:	2001      	movs	r0, #1
 8001f3a:	2100      	movs	r1, #0
 8001f3c:	731a      	strb	r2, [r3, #12]
 8001f3e:	f7ff fb35 	bl	80015ac <Set_CSW>
 8001f42:	2000      	movs	r0, #0
 8001f44:	bd10      	pop	{r4, pc}
 8001f46:	4a13      	ldr	r2, [pc, #76]	; (8001f94 <SCSI_Address_Management+0x7c>)
 8001f48:	f852 0020 	ldr.w	r0, [r2, r0, lsl #2]
 8001f4c:	4a12      	ldr	r2, [pc, #72]	; (8001f98 <SCSI_Address_Management+0x80>)
 8001f4e:	fb00 f003 	mul.w	r0, r0, r3
 8001f52:	6892      	ldr	r2, [r2, #8]
 8001f54:	4282      	cmp	r2, r0
 8001f56:	d00f      	beq.n	8001f78 <SCSI_Address_Management+0x60>
 8001f58:	292a      	cmp	r1, #42	; 0x2a
 8001f5a:	d013      	beq.n	8001f84 <SCSI_Address_Management+0x6c>
 8001f5c:	2000      	movs	r0, #0
 8001f5e:	f7ff fb43 	bl	80015e8 <Bot_Abort>
 8001f62:	4b0b      	ldr	r3, [pc, #44]	; (8001f90 <SCSI_Address_Management+0x78>)
 8001f64:	2205      	movs	r2, #5
 8001f66:	709a      	strb	r2, [r3, #2]
 8001f68:	2224      	movs	r2, #36	; 0x24
 8001f6a:	2001      	movs	r0, #1
 8001f6c:	2100      	movs	r1, #0
 8001f6e:	731a      	strb	r2, [r3, #12]
 8001f70:	f7ff fb1c 	bl	80015ac <Set_CSW>
 8001f74:	2000      	movs	r0, #0
 8001f76:	bd10      	pop	{r4, pc}
 8001f78:	2001      	movs	r0, #1
 8001f7a:	bd10      	pop	{r4, pc}
 8001f7c:	2002      	movs	r0, #2
 8001f7e:	f7ff fb33 	bl	80015e8 <Bot_Abort>
 8001f82:	e7d2      	b.n	8001f2a <SCSI_Address_Management+0x12>
 8001f84:	2002      	movs	r0, #2
 8001f86:	f7ff fb2f 	bl	80015e8 <Bot_Abort>
 8001f8a:	e7ea      	b.n	8001f62 <SCSI_Address_Management+0x4a>
 8001f8c:	20000c84 	.word	0x20000c84
 8001f90:	20000058 	.word	0x20000058
 8001f94:	20000c7c 	.word	0x20000c7c
 8001f98:	20000c98 	.word	0x20000c98

08001f9c <Add_To_Buffer>:
 8001f9c:	b470      	push	{r4, r5, r6}
 8001f9e:	880c      	ldrh	r4, [r1, #0]
 8001fa0:	888b      	ldrh	r3, [r1, #4]
 8001fa2:	1c62      	adds	r2, r4, #1
 8001fa4:	b296      	uxth	r6, r2
 8001fa6:	fbb6 f5f3 	udiv	r5, r6, r3
 8001faa:	fb03 6c15 	mls	ip, r3, r5, r6
 8001fae:	884d      	ldrh	r5, [r1, #2]
 8001fb0:	fa1f f28c 	uxth.w	r2, ip
 8001fb4:	688e      	ldr	r6, [r1, #8]
 8001fb6:	4295      	cmp	r5, r2
 8001fb8:	f846 0024 	str.w	r0, [r6, r4, lsl #2]
 8001fbc:	800a      	strh	r2, [r1, #0]
 8001fbe:	d105      	bne.n	8001fcc <Add_To_Buffer+0x30>
 8001fc0:	1c68      	adds	r0, r5, #1
 8001fc2:	fb90 fcf3 	sdiv	ip, r0, r3
 8001fc6:	fb03 051c 	mls	r5, r3, ip, r0
 8001fca:	804d      	strh	r5, [r1, #2]
 8001fcc:	bc70      	pop	{r4, r5, r6}
 8001fce:	4770      	bx	lr

08001fd0 <Get_From_Buffer>:
 8001fd0:	884b      	ldrh	r3, [r1, #2]
 8001fd2:	880a      	ldrh	r2, [r1, #0]
 8001fd4:	b470      	push	{r4, r5, r6}
 8001fd6:	429a      	cmp	r2, r3
 8001fd8:	d010      	beq.n	8001ffc <Get_From_Buffer+0x2c>
 8001fda:	888a      	ldrh	r2, [r1, #4]
 8001fdc:	1c5d      	adds	r5, r3, #1
 8001fde:	b2ac      	uxth	r4, r5
 8001fe0:	fbb4 f6f2 	udiv	r6, r4, r2
 8001fe4:	688d      	ldr	r5, [r1, #8]
 8001fe6:	fb02 4c16 	mls	ip, r2, r6, r4
 8001fea:	f855 4023 	ldr.w	r4, [r5, r3, lsl #2]
 8001fee:	2300      	movs	r3, #0
 8001ff0:	6004      	str	r4, [r0, #0]
 8001ff2:	f8a1 c002 	strh.w	ip, [r1, #2]
 8001ff6:	4618      	mov	r0, r3
 8001ff8:	bc70      	pop	{r4, r5, r6}
 8001ffa:	4770      	bx	lr
 8001ffc:	2300      	movs	r3, #0
 8001ffe:	6003      	str	r3, [r0, #0]
 8002000:	2301      	movs	r3, #1
 8002002:	e7f8      	b.n	8001ff6 <Get_From_Buffer+0x26>

08002004 <Empty_Buffer>:
 8002004:	8803      	ldrh	r3, [r0, #0]
 8002006:	8043      	strh	r3, [r0, #2]
 8002008:	4770      	bx	lr
 800200a:	bf00      	nop

0800200c <init_buffer>:
 800200c:	b538      	push	{r3, r4, r5, lr}
 800200e:	4604      	mov	r4, r0
 8002010:	0088      	lsls	r0, r1, #2
 8002012:	460d      	mov	r5, r1
 8002014:	f011 f8f2 	bl	80131fc <malloc>
 8002018:	80a5      	strh	r5, [r4, #4]
 800201a:	60a0      	str	r0, [r4, #8]
 800201c:	bd38      	pop	{r3, r4, r5, pc}
 800201e:	bf00      	nop

08002020 <Delay>:
 8002020:	4a0a      	ldr	r2, [pc, #40]	; (800204c <Delay+0x2c>)
 8002022:	b082      	sub	sp, #8
 8002024:	9001      	str	r0, [sp, #4]
 8002026:	6811      	ldr	r1, [r2, #0]
 8002028:	4809      	ldr	r0, [pc, #36]	; (8002050 <Delay+0x30>)
 800202a:	9a01      	ldr	r2, [sp, #4]
 800202c:	fba0 1301 	umull	r1, r3, r0, r1
 8002030:	0dd9      	lsrs	r1, r3, #23
 8002032:	fb02 f001 	mul.w	r0, r2, r1
 8002036:	9001      	str	r0, [sp, #4]
 8002038:	9b01      	ldr	r3, [sp, #4]
 800203a:	b12b      	cbz	r3, 8002048 <Delay+0x28>
 800203c:	9901      	ldr	r1, [sp, #4]
 800203e:	1e48      	subs	r0, r1, #1
 8002040:	9001      	str	r0, [sp, #4]
 8002042:	9b01      	ldr	r3, [sp, #4]
 8002044:	2b00      	cmp	r3, #0
 8002046:	d1f9      	bne.n	800203c <Delay+0x1c>
 8002048:	b002      	add	sp, #8
 800204a:	4770      	bx	lr
 800204c:	0801b518 	.word	0x0801b518
 8002050:	ee9bfab5 	.word	0xee9bfab5

08002054 <ff_convert>:
 8002054:	2880      	cmp	r0, #128	; 0x80
 8002056:	b4f0      	push	{r4, r5, r6, r7}
 8002058:	f240 80f9 	bls.w	800224e <ff_convert+0x1fa>
 800205c:	2900      	cmp	r1, #0
 800205e:	f040 80f8 	bne.w	8002252 <ff_convert+0x1fe>
 8002062:	f247 0385 	movw	r3, #28805	; 0x7085
 8002066:	4283      	cmp	r3, r0
 8002068:	f000 80fe 	beq.w	8002268 <ff_convert+0x214>
 800206c:	4298      	cmp	r0, r3
 800206e:	f640 626e 	movw	r2, #3694	; 0xe6e
 8002072:	f641 45dd 	movw	r5, #7389	; 0x1cdd
 8002076:	bf8c      	ite	hi
 8002078:	4611      	movhi	r1, r2
 800207a:	2100      	movls	r1, #0
 800207c:	bf98      	it	ls
 800207e:	4615      	movls	r5, r2
 8002080:	1a6c      	subs	r4, r5, r1
 8002082:	eb01 0464 	add.w	r4, r1, r4, asr #1
 8002086:	4a7c      	ldr	r2, [pc, #496]	; (8002278 <ff_convert+0x224>)
 8002088:	0063      	lsls	r3, r4, #1
 800208a:	f832 6013 	ldrh.w	r6, [r2, r3, lsl #1]
 800208e:	4286      	cmp	r6, r0
 8002090:	f000 80ed 	beq.w	800226e <ff_convert+0x21a>
 8002094:	42b0      	cmp	r0, r6
 8002096:	bf88      	it	hi
 8002098:	4621      	movhi	r1, r4
 800209a:	bf88      	it	hi
 800209c:	462c      	movhi	r4, r5
 800209e:	1a65      	subs	r5, r4, r1
 80020a0:	eb05 73d5 	add.w	r3, r5, r5, lsr #31
 80020a4:	eb01 0563 	add.w	r5, r1, r3, asr #1
 80020a8:	006b      	lsls	r3, r5, #1
 80020aa:	f832 6013 	ldrh.w	r6, [r2, r3, lsl #1]
 80020ae:	4286      	cmp	r6, r0
 80020b0:	f000 80dd 	beq.w	800226e <ff_convert+0x21a>
 80020b4:	42b0      	cmp	r0, r6
 80020b6:	bf88      	it	hi
 80020b8:	4629      	movhi	r1, r5
 80020ba:	bf88      	it	hi
 80020bc:	4625      	movhi	r5, r4
 80020be:	ebc1 0c05 	rsb	ip, r1, r5
 80020c2:	eb0c 76dc 	add.w	r6, ip, ip, lsr #31
 80020c6:	eb01 0666 	add.w	r6, r1, r6, asr #1
 80020ca:	0073      	lsls	r3, r6, #1
 80020cc:	f832 4013 	ldrh.w	r4, [r2, r3, lsl #1]
 80020d0:	4284      	cmp	r4, r0
 80020d2:	f000 80cc 	beq.w	800226e <ff_convert+0x21a>
 80020d6:	42a0      	cmp	r0, r4
 80020d8:	bf88      	it	hi
 80020da:	4631      	movhi	r1, r6
 80020dc:	bf98      	it	ls
 80020de:	4635      	movls	r5, r6
 80020e0:	1a6c      	subs	r4, r5, r1
 80020e2:	eb04 77d4 	add.w	r7, r4, r4, lsr #31
 80020e6:	eb01 0767 	add.w	r7, r1, r7, asr #1
 80020ea:	007b      	lsls	r3, r7, #1
 80020ec:	f832 4013 	ldrh.w	r4, [r2, r3, lsl #1]
 80020f0:	4284      	cmp	r4, r0
 80020f2:	f000 80bc 	beq.w	800226e <ff_convert+0x21a>
 80020f6:	42a0      	cmp	r0, r4
 80020f8:	bf88      	it	hi
 80020fa:	4639      	movhi	r1, r7
 80020fc:	bf98      	it	ls
 80020fe:	463d      	movls	r5, r7
 8002100:	1a6e      	subs	r6, r5, r1
 8002102:	eb06 73d6 	add.w	r3, r6, r6, lsr #31
 8002106:	eb01 0463 	add.w	r4, r1, r3, asr #1
 800210a:	0063      	lsls	r3, r4, #1
 800210c:	f832 6013 	ldrh.w	r6, [r2, r3, lsl #1]
 8002110:	4286      	cmp	r6, r0
 8002112:	f000 80ac 	beq.w	800226e <ff_convert+0x21a>
 8002116:	42b0      	cmp	r0, r6
 8002118:	bf88      	it	hi
 800211a:	4621      	movhi	r1, r4
 800211c:	bf88      	it	hi
 800211e:	462c      	movhi	r4, r5
 8002120:	ebc1 0c04 	rsb	ip, r1, r4
 8002124:	eb0c 75dc 	add.w	r5, ip, ip, lsr #31
 8002128:	eb01 0565 	add.w	r5, r1, r5, asr #1
 800212c:	006b      	lsls	r3, r5, #1
 800212e:	f832 6013 	ldrh.w	r6, [r2, r3, lsl #1]
 8002132:	4286      	cmp	r6, r0
 8002134:	f000 809b 	beq.w	800226e <ff_convert+0x21a>
 8002138:	42b0      	cmp	r0, r6
 800213a:	bf88      	it	hi
 800213c:	4629      	movhi	r1, r5
 800213e:	bf88      	it	hi
 8002140:	4625      	movhi	r5, r4
 8002142:	1a6b      	subs	r3, r5, r1
 8002144:	eb03 74d3 	add.w	r4, r3, r3, lsr #31
 8002148:	eb01 0664 	add.w	r6, r1, r4, asr #1
 800214c:	0073      	lsls	r3, r6, #1
 800214e:	f832 4013 	ldrh.w	r4, [r2, r3, lsl #1]
 8002152:	4284      	cmp	r4, r0
 8002154:	f000 808b 	beq.w	800226e <ff_convert+0x21a>
 8002158:	42a0      	cmp	r0, r4
 800215a:	bf88      	it	hi
 800215c:	4631      	movhi	r1, r6
 800215e:	bf98      	it	ls
 8002160:	4635      	movls	r5, r6
 8002162:	ebc1 0c05 	rsb	ip, r1, r5
 8002166:	eb0c 77dc 	add.w	r7, ip, ip, lsr #31
 800216a:	eb01 0767 	add.w	r7, r1, r7, asr #1
 800216e:	007b      	lsls	r3, r7, #1
 8002170:	f832 4013 	ldrh.w	r4, [r2, r3, lsl #1]
 8002174:	4284      	cmp	r4, r0
 8002176:	d07a      	beq.n	800226e <ff_convert+0x21a>
 8002178:	42a0      	cmp	r0, r4
 800217a:	bf88      	it	hi
 800217c:	4639      	movhi	r1, r7
 800217e:	bf98      	it	ls
 8002180:	463d      	movls	r5, r7
 8002182:	1a6c      	subs	r4, r5, r1
 8002184:	eb04 76d4 	add.w	r6, r4, r4, lsr #31
 8002188:	eb01 0466 	add.w	r4, r1, r6, asr #1
 800218c:	0063      	lsls	r3, r4, #1
 800218e:	f832 6013 	ldrh.w	r6, [r2, r3, lsl #1]
 8002192:	4286      	cmp	r6, r0
 8002194:	d06b      	beq.n	800226e <ff_convert+0x21a>
 8002196:	42b0      	cmp	r0, r6
 8002198:	bf88      	it	hi
 800219a:	4621      	movhi	r1, r4
 800219c:	bf88      	it	hi
 800219e:	462c      	movhi	r4, r5
 80021a0:	1a63      	subs	r3, r4, r1
 80021a2:	eb03 75d3 	add.w	r5, r3, r3, lsr #31
 80021a6:	eb01 0565 	add.w	r5, r1, r5, asr #1
 80021aa:	006b      	lsls	r3, r5, #1
 80021ac:	f832 6013 	ldrh.w	r6, [r2, r3, lsl #1]
 80021b0:	4286      	cmp	r6, r0
 80021b2:	d05c      	beq.n	800226e <ff_convert+0x21a>
 80021b4:	42b0      	cmp	r0, r6
 80021b6:	bf88      	it	hi
 80021b8:	4629      	movhi	r1, r5
 80021ba:	bf98      	it	ls
 80021bc:	462c      	movls	r4, r5
 80021be:	1a66      	subs	r6, r4, r1
 80021c0:	eb06 7cd6 	add.w	ip, r6, r6, lsr #31
 80021c4:	eb01 066c 	add.w	r6, r1, ip, asr #1
 80021c8:	0073      	lsls	r3, r6, #1
 80021ca:	f832 5013 	ldrh.w	r5, [r2, r3, lsl #1]
 80021ce:	4285      	cmp	r5, r0
 80021d0:	d04d      	beq.n	800226e <ff_convert+0x21a>
 80021d2:	42a8      	cmp	r0, r5
 80021d4:	bf88      	it	hi
 80021d6:	4631      	movhi	r1, r6
 80021d8:	bf88      	it	hi
 80021da:	4626      	movhi	r6, r4
 80021dc:	1a75      	subs	r5, r6, r1
 80021de:	eb05 74d5 	add.w	r4, r5, r5, lsr #31
 80021e2:	eb01 0464 	add.w	r4, r1, r4, asr #1
 80021e6:	0063      	lsls	r3, r4, #1
 80021e8:	f832 5013 	ldrh.w	r5, [r2, r3, lsl #1]
 80021ec:	4285      	cmp	r5, r0
 80021ee:	d03e      	beq.n	800226e <ff_convert+0x21a>
 80021f0:	42a8      	cmp	r0, r5
 80021f2:	bf88      	it	hi
 80021f4:	4621      	movhi	r1, r4
 80021f6:	bf88      	it	hi
 80021f8:	4634      	movhi	r4, r6
 80021fa:	ebc1 0c04 	rsb	ip, r1, r4
 80021fe:	eb0c 73dc 	add.w	r3, ip, ip, lsr #31
 8002202:	eb01 0563 	add.w	r5, r1, r3, asr #1
 8002206:	006b      	lsls	r3, r5, #1
 8002208:	f832 6013 	ldrh.w	r6, [r2, r3, lsl #1]
 800220c:	4286      	cmp	r6, r0
 800220e:	d02e      	beq.n	800226e <ff_convert+0x21a>
 8002210:	42b0      	cmp	r0, r6
 8002212:	bf88      	it	hi
 8002214:	4629      	movhi	r1, r5
 8002216:	bf98      	it	ls
 8002218:	462c      	movls	r4, r5
 800221a:	1a65      	subs	r5, r4, r1
 800221c:	eb05 76d5 	add.w	r6, r5, r5, lsr #31
 8002220:	eb01 0666 	add.w	r6, r1, r6, asr #1
 8002224:	0073      	lsls	r3, r6, #1
 8002226:	f832 5013 	ldrh.w	r5, [r2, r3, lsl #1]
 800222a:	4285      	cmp	r5, r0
 800222c:	d01f      	beq.n	800226e <ff_convert+0x21a>
 800222e:	42a8      	cmp	r0, r5
 8002230:	bf88      	it	hi
 8002232:	4631      	movhi	r1, r6
 8002234:	bf98      	it	ls
 8002236:	4634      	movls	r4, r6
 8002238:	1a64      	subs	r4, r4, r1
 800223a:	eb04 74d4 	add.w	r4, r4, r4, lsr #31
 800223e:	eb01 0364 	add.w	r3, r1, r4, asr #1
 8002242:	005b      	lsls	r3, r3, #1
 8002244:	f832 1013 	ldrh.w	r1, [r2, r3, lsl #1]
 8002248:	4281      	cmp	r1, r0
 800224a:	d010      	beq.n	800226e <ff_convert+0x21a>
 800224c:	2000      	movs	r0, #0
 800224e:	bcf0      	pop	{r4, r5, r6, r7}
 8002250:	4770      	bx	lr
 8002252:	4b0a      	ldr	r3, [pc, #40]	; (800227c <ff_convert+0x228>)
 8002254:	f833 2c04 	ldrh.w	r2, [r3, #-4]
 8002258:	4619      	mov	r1, r3
 800225a:	3304      	adds	r3, #4
 800225c:	b10a      	cbz	r2, 8002262 <ff_convert+0x20e>
 800225e:	4282      	cmp	r2, r0
 8002260:	d1f8      	bne.n	8002254 <ff_convert+0x200>
 8002262:	f831 0c06 	ldrh.w	r0, [r1, #-6]
 8002266:	e7f2      	b.n	800224e <ff_convert+0x1fa>
 8002268:	4a03      	ldr	r2, [pc, #12]	; (8002278 <ff_convert+0x224>)
 800226a:	f641 43dc 	movw	r3, #7388	; 0x1cdc
 800226e:	1c58      	adds	r0, r3, #1
 8002270:	f832 0010 	ldrh.w	r0, [r2, r0, lsl #1]
 8002274:	e7eb      	b.n	800224e <ff_convert+0x1fa>
 8002276:	bf00      	nop
 8002278:	08013d7c 	.word	0x08013d7c
 800227c:	08013d82 	.word	0x08013d82

08002280 <ff_wtoupper>:
 8002280:	2861      	cmp	r0, #97	; 0x61
 8002282:	d00a      	beq.n	800229a <ff_wtoupper+0x1a>
 8002284:	4908      	ldr	r1, [pc, #32]	; (80022a8 <ff_wtoupper+0x28>)
 8002286:	2200      	movs	r2, #0
 8002288:	e001      	b.n	800228e <ff_wtoupper+0xe>
 800228a:	4283      	cmp	r3, r0
 800228c:	d006      	beq.n	800229c <ff_wtoupper+0x1c>
 800228e:	f831 3f02 	ldrh.w	r3, [r1, #2]!
 8002292:	3201      	adds	r2, #1
 8002294:	2b00      	cmp	r3, #0
 8002296:	d1f8      	bne.n	800228a <ff_wtoupper+0xa>
 8002298:	4770      	bx	lr
 800229a:	2200      	movs	r2, #0
 800229c:	4b03      	ldr	r3, [pc, #12]	; (80022ac <ff_wtoupper+0x2c>)
 800229e:	eb03 0242 	add.w	r2, r3, r2, lsl #1
 80022a2:	f8b2 0f88 	ldrh.w	r0, [r2, #3976]	; 0xf88
 80022a6:	4770      	bx	lr
 80022a8:	0801b0f4 	.word	0x0801b0f4
 80022ac:	0801a34c 	.word	0x0801a34c

080022b0 <get_fattime>:
 80022b0:	b510      	push	{r4, lr}
 80022b2:	b084      	sub	sp, #16
 80022b4:	a801      	add	r0, sp, #4
 80022b6:	f006 fa3d 	bl	8008734 <rtc_gettime>
 80022ba:	f89d 2006 	ldrb.w	r2, [sp, #6]
 80022be:	f89d 4007 	ldrb.w	r4, [sp, #7]
 80022c2:	f8bd 1004 	ldrh.w	r1, [sp, #4]
 80022c6:	0553      	lsls	r3, r2, #21
 80022c8:	f89d 000b 	ldrb.w	r0, [sp, #11]
 80022cc:	f89d 2009 	ldrb.w	r2, [sp, #9]
 80022d0:	ea43 4c04 	orr.w	ip, r3, r4, lsl #16
 80022d4:	0649      	lsls	r1, r1, #25
 80022d6:	ea4c 0c50 	orr.w	ip, ip, r0, lsr #1
 80022da:	f101 4308 	add.w	r3, r1, #2281701376	; 0x88000000
 80022de:	02d0      	lsls	r0, r2, #11
 80022e0:	b282      	uxth	r2, r0
 80022e2:	ea4c 0103 	orr.w	r1, ip, r3
 80022e6:	f89d 000a 	ldrb.w	r0, [sp, #10]
 80022ea:	ea41 0302 	orr.w	r3, r1, r2
 80022ee:	ea43 1040 	orr.w	r0, r3, r0, lsl #5
 80022f2:	b004      	add	sp, #16
 80022f4:	bd10      	pop	{r4, pc}
 80022f6:	bf00      	nop

080022f8 <get_fileinfo>:
 80022f8:	b5f8      	push	{r3, r4, r5, r6, r7, lr}
 80022fa:	6903      	ldr	r3, [r0, #16]
 80022fc:	460c      	mov	r4, r1
 80022fe:	f101 0209 	add.w	r2, r1, #9
 8002302:	2b00      	cmp	r3, #0
 8002304:	f000 8081 	beq.w	800240a <get_fileinfo+0x112>
 8002308:	6943      	ldr	r3, [r0, #20]
 800230a:	7b19      	ldrb	r1, [r3, #12]
 800230c:	f011 0f08 	tst.w	r1, #8
 8002310:	f040 80aa 	bne.w	8002468 <get_fileinfo+0x170>
 8002314:	781d      	ldrb	r5, [r3, #0]
 8002316:	2d20      	cmp	r5, #32
 8002318:	d044      	beq.n	80023a4 <get_fileinfo+0xac>
 800231a:	2d05      	cmp	r5, #5
 800231c:	bf08      	it	eq
 800231e:	25e5      	moveq	r5, #229	; 0xe5
 8002320:	7265      	strb	r5, [r4, #9]
 8002322:	785d      	ldrb	r5, [r3, #1]
 8002324:	f104 020a 	add.w	r2, r4, #10
 8002328:	2d20      	cmp	r5, #32
 800232a:	d03b      	beq.n	80023a4 <get_fileinfo+0xac>
 800232c:	2d05      	cmp	r5, #5
 800232e:	bf08      	it	eq
 8002330:	25e5      	moveq	r5, #229	; 0xe5
 8002332:	72a5      	strb	r5, [r4, #10]
 8002334:	789d      	ldrb	r5, [r3, #2]
 8002336:	f104 020b 	add.w	r2, r4, #11
 800233a:	2d20      	cmp	r5, #32
 800233c:	d032      	beq.n	80023a4 <get_fileinfo+0xac>
 800233e:	2d05      	cmp	r5, #5
 8002340:	bf08      	it	eq
 8002342:	25e5      	moveq	r5, #229	; 0xe5
 8002344:	72e5      	strb	r5, [r4, #11]
 8002346:	78dd      	ldrb	r5, [r3, #3]
 8002348:	f104 020c 	add.w	r2, r4, #12
 800234c:	2d20      	cmp	r5, #32
 800234e:	d029      	beq.n	80023a4 <get_fileinfo+0xac>
 8002350:	2d05      	cmp	r5, #5
 8002352:	bf08      	it	eq
 8002354:	25e5      	moveq	r5, #229	; 0xe5
 8002356:	7325      	strb	r5, [r4, #12]
 8002358:	791d      	ldrb	r5, [r3, #4]
 800235a:	f104 020d 	add.w	r2, r4, #13
 800235e:	2d20      	cmp	r5, #32
 8002360:	d020      	beq.n	80023a4 <get_fileinfo+0xac>
 8002362:	2d05      	cmp	r5, #5
 8002364:	bf08      	it	eq
 8002366:	25e5      	moveq	r5, #229	; 0xe5
 8002368:	7365      	strb	r5, [r4, #13]
 800236a:	795d      	ldrb	r5, [r3, #5]
 800236c:	f104 020e 	add.w	r2, r4, #14
 8002370:	2d20      	cmp	r5, #32
 8002372:	d017      	beq.n	80023a4 <get_fileinfo+0xac>
 8002374:	2d05      	cmp	r5, #5
 8002376:	bf08      	it	eq
 8002378:	25e5      	moveq	r5, #229	; 0xe5
 800237a:	73a5      	strb	r5, [r4, #14]
 800237c:	799d      	ldrb	r5, [r3, #6]
 800237e:	f104 020f 	add.w	r2, r4, #15
 8002382:	2d20      	cmp	r5, #32
 8002384:	d00e      	beq.n	80023a4 <get_fileinfo+0xac>
 8002386:	2d05      	cmp	r5, #5
 8002388:	bf08      	it	eq
 800238a:	25e5      	moveq	r5, #229	; 0xe5
 800238c:	73e5      	strb	r5, [r4, #15]
 800238e:	79dd      	ldrb	r5, [r3, #7]
 8002390:	f104 0210 	add.w	r2, r4, #16
 8002394:	2d20      	cmp	r5, #32
 8002396:	d005      	beq.n	80023a4 <get_fileinfo+0xac>
 8002398:	2d05      	cmp	r5, #5
 800239a:	bf08      	it	eq
 800239c:	25e5      	moveq	r5, #229	; 0xe5
 800239e:	7425      	strb	r5, [r4, #16]
 80023a0:	f104 0211 	add.w	r2, r4, #17
 80023a4:	7a1d      	ldrb	r5, [r3, #8]
 80023a6:	2d20      	cmp	r5, #32
 80023a8:	d015      	beq.n	80023d6 <get_fileinfo+0xde>
 80023aa:	262e      	movs	r6, #46	; 0x2e
 80023ac:	f011 0f10 	tst.w	r1, #16
 80023b0:	f802 6b01 	strb.w	r6, [r2], #1
 80023b4:	f040 80de 	bne.w	8002574 <get_fileinfo+0x27c>
 80023b8:	7a19      	ldrb	r1, [r3, #8]
 80023ba:	2920      	cmp	r1, #32
 80023bc:	d00b      	beq.n	80023d6 <get_fileinfo+0xde>
 80023be:	f802 1b01 	strb.w	r1, [r2], #1
 80023c2:	7a59      	ldrb	r1, [r3, #9]
 80023c4:	2920      	cmp	r1, #32
 80023c6:	d006      	beq.n	80023d6 <get_fileinfo+0xde>
 80023c8:	f802 1b01 	strb.w	r1, [r2], #1
 80023cc:	7a99      	ldrb	r1, [r3, #10]
 80023ce:	2920      	cmp	r1, #32
 80023d0:	d001      	beq.n	80023d6 <get_fileinfo+0xde>
 80023d2:	f802 1b01 	strb.w	r1, [r2], #1
 80023d6:	7adf      	ldrb	r7, [r3, #11]
 80023d8:	7227      	strb	r7, [r4, #8]
 80023da:	7f99      	ldrb	r1, [r3, #30]
 80023dc:	7fdf      	ldrb	r7, [r3, #31]
 80023de:	7f1d      	ldrb	r5, [r3, #28]
 80023e0:	040e      	lsls	r6, r1, #16
 80023e2:	f893 c01d 	ldrb.w	ip, [r3, #29]
 80023e6:	ea46 6107 	orr.w	r1, r6, r7, lsl #24
 80023ea:	ea41 0605 	orr.w	r6, r1, r5
 80023ee:	ea46 250c 	orr.w	r5, r6, ip, lsl #8
 80023f2:	6025      	str	r5, [r4, #0]
 80023f4:	7e19      	ldrb	r1, [r3, #24]
 80023f6:	7e5d      	ldrb	r5, [r3, #25]
 80023f8:	ea41 2c05 	orr.w	ip, r1, r5, lsl #8
 80023fc:	f8a4 c004 	strh.w	ip, [r4, #4]
 8002400:	7dde      	ldrb	r6, [r3, #23]
 8002402:	7d9b      	ldrb	r3, [r3, #22]
 8002404:	ea43 2106 	orr.w	r1, r3, r6, lsl #8
 8002408:	80e1      	strh	r1, [r4, #6]
 800240a:	2300      	movs	r3, #0
 800240c:	7013      	strb	r3, [r2, #0]
 800240e:	69a6      	ldr	r6, [r4, #24]
 8002410:	b12e      	cbz	r6, 800241e <get_fileinfo+0x126>
 8002412:	69e2      	ldr	r2, [r4, #28]
 8002414:	b11a      	cbz	r2, 800241e <get_fileinfo+0x126>
 8002416:	6905      	ldr	r5, [r0, #16]
 8002418:	b915      	cbnz	r5, 8002420 <get_fileinfo+0x128>
 800241a:	2000      	movs	r0, #0
 800241c:	5570      	strb	r0, [r6, r5]
 800241e:	bdf8      	pop	{r3, r4, r5, r6, r7, pc}
 8002420:	f8b0 c020 	ldrh.w	ip, [r0, #32]
 8002424:	f64f 75ff 	movw	r5, #65535	; 0xffff
 8002428:	45ac      	cmp	ip, r5
 800242a:	f000 80ca 	beq.w	80025c2 <get_fileinfo+0x2ca>
 800242e:	69c7      	ldr	r7, [r0, #28]
 8002430:	8838      	ldrh	r0, [r7, #0]
 8002432:	b1b8      	cbz	r0, 8002464 <get_fileinfo+0x16c>
 8002434:	461d      	mov	r5, r3
 8002436:	e00f      	b.n	8002458 <get_fileinfo+0x160>
 8002438:	28ff      	cmp	r0, #255	; 0xff
 800243a:	bf88      	it	hi
 800243c:	5573      	strbhi	r3, [r6, r5]
 800243e:	69e1      	ldr	r1, [r4, #28]
 8002440:	bf88      	it	hi
 8002442:	3501      	addhi	r5, #1
 8002444:	1e4b      	subs	r3, r1, #1
 8002446:	429d      	cmp	r5, r3
 8002448:	f080 80c1 	bcs.w	80025ce <get_fileinfo+0x2d6>
 800244c:	5570      	strb	r0, [r6, r5]
 800244e:	f837 0f02 	ldrh.w	r0, [r7, #2]!
 8002452:	3501      	adds	r5, #1
 8002454:	2800      	cmp	r0, #0
 8002456:	d0e0      	beq.n	800241a <get_fileinfo+0x122>
 8002458:	2100      	movs	r1, #0
 800245a:	f7ff fdfb 	bl	8002054 <ff_convert>
 800245e:	0a03      	lsrs	r3, r0, #8
 8002460:	2800      	cmp	r0, #0
 8002462:	d1e9      	bne.n	8002438 <get_fileinfo+0x140>
 8002464:	4605      	mov	r5, r0
 8002466:	e7d8      	b.n	800241a <get_fileinfo+0x122>
 8002468:	781d      	ldrb	r5, [r3, #0]
 800246a:	2d20      	cmp	r5, #32
 800246c:	d09a      	beq.n	80023a4 <get_fileinfo+0xac>
 800246e:	2d05      	cmp	r5, #5
 8002470:	f000 80a9 	beq.w	80025c6 <get_fileinfo+0x2ce>
 8002474:	f1a5 0641 	sub.w	r6, r5, #65	; 0x41
 8002478:	b2f2      	uxtb	r2, r6
 800247a:	2a19      	cmp	r2, #25
 800247c:	d801      	bhi.n	8002482 <get_fileinfo+0x18a>
 800247e:	3520      	adds	r5, #32
 8002480:	b2ed      	uxtb	r5, r5
 8002482:	7265      	strb	r5, [r4, #9]
 8002484:	785d      	ldrb	r5, [r3, #1]
 8002486:	f104 020a 	add.w	r2, r4, #10
 800248a:	2d20      	cmp	r5, #32
 800248c:	d08a      	beq.n	80023a4 <get_fileinfo+0xac>
 800248e:	2d05      	cmp	r5, #5
 8002490:	f000 809b 	beq.w	80025ca <get_fileinfo+0x2d2>
 8002494:	f1a5 0c41 	sub.w	ip, r5, #65	; 0x41
 8002498:	fa5f f78c 	uxtb.w	r7, ip
 800249c:	2f19      	cmp	r7, #25
 800249e:	d801      	bhi.n	80024a4 <get_fileinfo+0x1ac>
 80024a0:	3520      	adds	r5, #32
 80024a2:	b2ed      	uxtb	r5, r5
 80024a4:	72a5      	strb	r5, [r4, #10]
 80024a6:	789d      	ldrb	r5, [r3, #2]
 80024a8:	f104 020b 	add.w	r2, r4, #11
 80024ac:	2d20      	cmp	r5, #32
 80024ae:	f43f af79 	beq.w	80023a4 <get_fileinfo+0xac>
 80024b2:	2d05      	cmp	r5, #5
 80024b4:	f000 808d 	beq.w	80025d2 <get_fileinfo+0x2da>
 80024b8:	f1a5 0641 	sub.w	r6, r5, #65	; 0x41
 80024bc:	b2f2      	uxtb	r2, r6
 80024be:	2a19      	cmp	r2, #25
 80024c0:	d801      	bhi.n	80024c6 <get_fileinfo+0x1ce>
 80024c2:	3520      	adds	r5, #32
 80024c4:	b2ed      	uxtb	r5, r5
 80024c6:	72e5      	strb	r5, [r4, #11]
 80024c8:	78dd      	ldrb	r5, [r3, #3]
 80024ca:	f104 020c 	add.w	r2, r4, #12
 80024ce:	2d20      	cmp	r5, #32
 80024d0:	f43f af68 	beq.w	80023a4 <get_fileinfo+0xac>
 80024d4:	2d05      	cmp	r5, #5
 80024d6:	d07e      	beq.n	80025d6 <get_fileinfo+0x2de>
 80024d8:	f1a5 0c41 	sub.w	ip, r5, #65	; 0x41
 80024dc:	fa5f f78c 	uxtb.w	r7, ip
 80024e0:	2f19      	cmp	r7, #25
 80024e2:	d801      	bhi.n	80024e8 <get_fileinfo+0x1f0>
 80024e4:	3520      	adds	r5, #32
 80024e6:	b2ed      	uxtb	r5, r5
 80024e8:	7325      	strb	r5, [r4, #12]
 80024ea:	791d      	ldrb	r5, [r3, #4]
 80024ec:	f104 020d 	add.w	r2, r4, #13
 80024f0:	2d20      	cmp	r5, #32
 80024f2:	f43f af57 	beq.w	80023a4 <get_fileinfo+0xac>
 80024f6:	2d05      	cmp	r5, #5
 80024f8:	d06f      	beq.n	80025da <get_fileinfo+0x2e2>
 80024fa:	f1a5 0641 	sub.w	r6, r5, #65	; 0x41
 80024fe:	b2f2      	uxtb	r2, r6
 8002500:	2a19      	cmp	r2, #25
 8002502:	d801      	bhi.n	8002508 <get_fileinfo+0x210>
 8002504:	3520      	adds	r5, #32
 8002506:	b2ed      	uxtb	r5, r5
 8002508:	7365      	strb	r5, [r4, #13]
 800250a:	795d      	ldrb	r5, [r3, #5]
 800250c:	f104 020e 	add.w	r2, r4, #14
 8002510:	2d20      	cmp	r5, #32
 8002512:	f43f af47 	beq.w	80023a4 <get_fileinfo+0xac>
 8002516:	2d05      	cmp	r5, #5
 8002518:	d061      	beq.n	80025de <get_fileinfo+0x2e6>
 800251a:	f1a5 0c41 	sub.w	ip, r5, #65	; 0x41
 800251e:	fa5f f78c 	uxtb.w	r7, ip
 8002522:	2f19      	cmp	r7, #25
 8002524:	d801      	bhi.n	800252a <get_fileinfo+0x232>
 8002526:	3520      	adds	r5, #32
 8002528:	b2ed      	uxtb	r5, r5
 800252a:	73a5      	strb	r5, [r4, #14]
 800252c:	799d      	ldrb	r5, [r3, #6]
 800252e:	f104 020f 	add.w	r2, r4, #15
 8002532:	2d20      	cmp	r5, #32
 8002534:	f43f af36 	beq.w	80023a4 <get_fileinfo+0xac>
 8002538:	2d05      	cmp	r5, #5
 800253a:	d052      	beq.n	80025e2 <get_fileinfo+0x2ea>
 800253c:	f1a5 0641 	sub.w	r6, r5, #65	; 0x41
 8002540:	b2f2      	uxtb	r2, r6
 8002542:	2a19      	cmp	r2, #25
 8002544:	d801      	bhi.n	800254a <get_fileinfo+0x252>
 8002546:	3520      	adds	r5, #32
 8002548:	b2ed      	uxtb	r5, r5
 800254a:	73e5      	strb	r5, [r4, #15]
 800254c:	79dd      	ldrb	r5, [r3, #7]
 800254e:	f104 0210 	add.w	r2, r4, #16
 8002552:	2d20      	cmp	r5, #32
 8002554:	f43f af26 	beq.w	80023a4 <get_fileinfo+0xac>
 8002558:	2d05      	cmp	r5, #5
 800255a:	d04a      	beq.n	80025f2 <get_fileinfo+0x2fa>
 800255c:	f1a5 0c41 	sub.w	ip, r5, #65	; 0x41
 8002560:	fa5f f78c 	uxtb.w	r7, ip
 8002564:	2f19      	cmp	r7, #25
 8002566:	d801      	bhi.n	800256c <get_fileinfo+0x274>
 8002568:	3520      	adds	r5, #32
 800256a:	b2ed      	uxtb	r5, r5
 800256c:	7425      	strb	r5, [r4, #16]
 800256e:	f104 0211 	add.w	r2, r4, #17
 8002572:	e717      	b.n	80023a4 <get_fileinfo+0xac>
 8002574:	7a19      	ldrb	r1, [r3, #8]
 8002576:	2920      	cmp	r1, #32
 8002578:	f43f af2d 	beq.w	80023d6 <get_fileinfo+0xde>
 800257c:	f1a1 0c41 	sub.w	ip, r1, #65	; 0x41
 8002580:	fa5f f78c 	uxtb.w	r7, ip
 8002584:	2f19      	cmp	r7, #25
 8002586:	d92e      	bls.n	80025e6 <get_fileinfo+0x2ee>
 8002588:	f802 1b01 	strb.w	r1, [r2], #1
 800258c:	7a59      	ldrb	r1, [r3, #9]
 800258e:	2920      	cmp	r1, #32
 8002590:	f43f af21 	beq.w	80023d6 <get_fileinfo+0xde>
 8002594:	f1a1 0641 	sub.w	r6, r1, #65	; 0x41
 8002598:	b2f5      	uxtb	r5, r6
 800259a:	2d19      	cmp	r5, #25
 800259c:	d926      	bls.n	80025ec <get_fileinfo+0x2f4>
 800259e:	f802 1b01 	strb.w	r1, [r2], #1
 80025a2:	7a99      	ldrb	r1, [r3, #10]
 80025a4:	2920      	cmp	r1, #32
 80025a6:	f43f af16 	beq.w	80023d6 <get_fileinfo+0xde>
 80025aa:	f1a1 0c41 	sub.w	ip, r1, #65	; 0x41
 80025ae:	fa5f f78c 	uxtb.w	r7, ip
 80025b2:	2f19      	cmp	r7, #25
 80025b4:	f63f af0d 	bhi.w	80023d2 <get_fileinfo+0xda>
 80025b8:	3120      	adds	r1, #32
 80025ba:	b2c9      	uxtb	r1, r1
 80025bc:	f802 1b01 	strb.w	r1, [r2], #1
 80025c0:	e709      	b.n	80023d6 <get_fileinfo+0xde>
 80025c2:	461d      	mov	r5, r3
 80025c4:	e729      	b.n	800241a <get_fileinfo+0x122>
 80025c6:	25e5      	movs	r5, #229	; 0xe5
 80025c8:	e75b      	b.n	8002482 <get_fileinfo+0x18a>
 80025ca:	25e5      	movs	r5, #229	; 0xe5
 80025cc:	e76a      	b.n	80024a4 <get_fileinfo+0x1ac>
 80025ce:	2500      	movs	r5, #0
 80025d0:	e723      	b.n	800241a <get_fileinfo+0x122>
 80025d2:	25e5      	movs	r5, #229	; 0xe5
 80025d4:	e777      	b.n	80024c6 <get_fileinfo+0x1ce>
 80025d6:	25e5      	movs	r5, #229	; 0xe5
 80025d8:	e786      	b.n	80024e8 <get_fileinfo+0x1f0>
 80025da:	25e5      	movs	r5, #229	; 0xe5
 80025dc:	e794      	b.n	8002508 <get_fileinfo+0x210>
 80025de:	25e5      	movs	r5, #229	; 0xe5
 80025e0:	e7a3      	b.n	800252a <get_fileinfo+0x232>
 80025e2:	25e5      	movs	r5, #229	; 0xe5
 80025e4:	e7b1      	b.n	800254a <get_fileinfo+0x252>
 80025e6:	3120      	adds	r1, #32
 80025e8:	b2c9      	uxtb	r1, r1
 80025ea:	e7cd      	b.n	8002588 <get_fileinfo+0x290>
 80025ec:	3120      	adds	r1, #32
 80025ee:	b2c9      	uxtb	r1, r1
 80025f0:	e7d5      	b.n	800259e <get_fileinfo+0x2a6>
 80025f2:	25e5      	movs	r5, #229	; 0xe5
 80025f4:	e7ba      	b.n	800256c <get_fileinfo+0x274>
 80025f6:	bf00      	nop

080025f8 <chk_mounted>:
 80025f8:	e92d 47f0 	stmdb	sp!, {r4, r5, r6, r7, r8, r9, sl, lr}
 80025fc:	6803      	ldr	r3, [r0, #0]
 80025fe:	4616      	mov	r6, r2
 8002600:	781c      	ldrb	r4, [r3, #0]
 8002602:	3c30      	subs	r4, #48	; 0x30
 8002604:	2c09      	cmp	r4, #9
 8002606:	d802      	bhi.n	800260e <chk_mounted+0x16>
 8002608:	785a      	ldrb	r2, [r3, #1]
 800260a:	2a3a      	cmp	r2, #58	; 0x3a
 800260c:	d04d      	beq.n	80026aa <chk_mounted+0xb2>
 800260e:	4dbe      	ldr	r5, [pc, #760]	; (8002908 <chk_mounted+0x310>)
 8002610:	682c      	ldr	r4, [r5, #0]
 8002612:	600c      	str	r4, [r1, #0]
 8002614:	2c00      	cmp	r4, #0
 8002616:	d054      	beq.n	80026c2 <chk_mounted+0xca>
 8002618:	7820      	ldrb	r0, [r4, #0]
 800261a:	2800      	cmp	r0, #0
 800261c:	d136      	bne.n	800268c <chk_mounted+0x94>
 800261e:	2000      	movs	r0, #0
 8002620:	7020      	strb	r0, [r4, #0]
 8002622:	7060      	strb	r0, [r4, #1]
 8002624:	f006 fd72 	bl	800910c <disk_initialize>
 8002628:	f010 0f01 	tst.w	r0, #1
 800262c:	d12b      	bne.n	8002686 <chk_mounted+0x8e>
 800262e:	b116      	cbz	r6, 8002636 <chk_mounted+0x3e>
 8002630:	f010 0f04 	tst.w	r0, #4
 8002634:	d140      	bne.n	80026b8 <chk_mounted+0xc0>
 8002636:	f104 0630 	add.w	r6, r4, #48	; 0x30
 800263a:	7860      	ldrb	r0, [r4, #1]
 800263c:	4631      	mov	r1, r6
 800263e:	2200      	movs	r2, #0
 8002640:	2301      	movs	r3, #1
 8002642:	f006 fe41 	bl	80092c8 <disk_read>
 8002646:	2800      	cmp	r0, #0
 8002648:	d139      	bne.n	80026be <chk_mounted+0xc6>
 800264a:	f894 c22f 	ldrb.w	ip, [r4, #559]	; 0x22f
 800264e:	f894 e22e 	ldrb.w	lr, [r4, #558]	; 0x22e
 8002652:	49ae      	ldr	r1, [pc, #696]	; (800290c <chk_mounted+0x314>)
 8002654:	ea4e 270c 	orr.w	r7, lr, ip, lsl #8
 8002658:	b23f      	sxth	r7, r7
 800265a:	428f      	cmp	r7, r1
 800265c:	d034      	beq.n	80026c8 <chk_mounted+0xd0>
 800265e:	2002      	movs	r0, #2
 8002660:	f04f 0900 	mov.w	r9, #0
 8002664:	2803      	cmp	r0, #3
 8002666:	f000 814b 	beq.w	8002900 <chk_mounted+0x308>
 800266a:	b948      	cbnz	r0, 8002680 <chk_mounted+0x88>
 800266c:	f894 203c 	ldrb.w	r2, [r4, #60]	; 0x3c
 8002670:	f894 003b 	ldrb.w	r0, [r4, #59]	; 0x3b
 8002674:	ea40 2e02 	orr.w	lr, r0, r2, lsl #8
 8002678:	f5be 7f00 	cmp.w	lr, #512	; 0x200
 800267c:	f000 809c 	beq.w	80027b8 <chk_mounted+0x1c0>
 8002680:	200d      	movs	r0, #13
 8002682:	e8bd 87f0 	ldmia.w	sp!, {r4, r5, r6, r7, r8, r9, sl, pc}
 8002686:	2003      	movs	r0, #3
 8002688:	e8bd 87f0 	ldmia.w	sp!, {r4, r5, r6, r7, r8, r9, sl, pc}
 800268c:	7860      	ldrb	r0, [r4, #1]
 800268e:	f006 fe13 	bl	80092b8 <disk_status>
 8002692:	f010 0f01 	tst.w	r0, #1
 8002696:	d1c2      	bne.n	800261e <chk_mounted+0x26>
 8002698:	2e00      	cmp	r6, #0
 800269a:	f000 812e 	beq.w	80028fa <chk_mounted+0x302>
 800269e:	f010 0004 	ands.w	r0, r0, #4
 80026a2:	bf18      	it	ne
 80026a4:	200a      	movne	r0, #10
 80026a6:	e8bd 87f0 	ldmia.w	sp!, {r4, r5, r6, r7, r8, r9, sl, pc}
 80026aa:	3302      	adds	r3, #2
 80026ac:	6003      	str	r3, [r0, #0]
 80026ae:	2c00      	cmp	r4, #0
 80026b0:	d0ad      	beq.n	800260e <chk_mounted+0x16>
 80026b2:	200b      	movs	r0, #11
 80026b4:	e8bd 87f0 	ldmia.w	sp!, {r4, r5, r6, r7, r8, r9, sl, pc}
 80026b8:	200a      	movs	r0, #10
 80026ba:	e8bd 87f0 	ldmia.w	sp!, {r4, r5, r6, r7, r8, r9, sl, pc}
 80026be:	2003      	movs	r0, #3
 80026c0:	e7ce      	b.n	8002660 <chk_mounted+0x68>
 80026c2:	200c      	movs	r0, #12
 80026c4:	e8bd 87f0 	ldmia.w	sp!, {r4, r5, r6, r7, r8, r9, sl, pc}
 80026c8:	f894 1068 	ldrb.w	r1, [r4, #104]	; 0x68
 80026cc:	f894 2069 	ldrb.w	r2, [r4, #105]	; 0x69
 80026d0:	040b      	lsls	r3, r1, #16
 80026d2:	f894 1066 	ldrb.w	r1, [r4, #102]	; 0x66
 80026d6:	ea43 6e02 	orr.w	lr, r3, r2, lsl #24
 80026da:	f894 c067 	ldrb.w	ip, [r4, #103]	; 0x67
 80026de:	ea4e 0801 	orr.w	r8, lr, r1
 80026e2:	ea48 230c 	orr.w	r3, r8, ip, lsl #8
 80026e6:	f8df 8228 	ldr.w	r8, [pc, #552]	; 8002910 <chk_mounted+0x318>
 80026ea:	f023 427f 	bic.w	r2, r3, #4278190080	; 0xff000000
 80026ee:	4542      	cmp	r2, r8
 80026f0:	d0b6      	beq.n	8002660 <chk_mounted+0x68>
 80026f2:	f894 2084 	ldrb.w	r2, [r4, #132]	; 0x84
 80026f6:	f894 e085 	ldrb.w	lr, [r4, #133]	; 0x85
 80026fa:	0413      	lsls	r3, r2, #16
 80026fc:	f894 1082 	ldrb.w	r1, [r4, #130]	; 0x82
 8002700:	ea43 6c0e 	orr.w	ip, r3, lr, lsl #24
 8002704:	f894 2083 	ldrb.w	r2, [r4, #131]	; 0x83
 8002708:	ea4c 0301 	orr.w	r3, ip, r1
 800270c:	ea43 2e02 	orr.w	lr, r3, r2, lsl #8
 8002710:	f02e 4c7f 	bic.w	ip, lr, #4278190080	; 0xff000000
 8002714:	45c4      	cmp	ip, r8
 8002716:	d0a3      	beq.n	8002660 <chk_mounted+0x68>
 8002718:	f894 01f2 	ldrb.w	r0, [r4, #498]	; 0x1f2
 800271c:	2800      	cmp	r0, #0
 800271e:	d0af      	beq.n	8002680 <chk_mounted+0x88>
 8002720:	f894 21f8 	ldrb.w	r2, [r4, #504]	; 0x1f8
 8002724:	f894 11f9 	ldrb.w	r1, [r4, #505]	; 0x1f9
 8002728:	0413      	lsls	r3, r2, #16
 800272a:	f894 e1f6 	ldrb.w	lr, [r4, #502]	; 0x1f6
 800272e:	ea43 6c01 	orr.w	ip, r3, r1, lsl #24
 8002732:	f894 91f7 	ldrb.w	r9, [r4, #503]	; 0x1f7
 8002736:	ea4c 000e 	orr.w	r0, ip, lr
 800273a:	ea40 2909 	orr.w	r9, r0, r9, lsl #8
 800273e:	4631      	mov	r1, r6
 8002740:	7860      	ldrb	r0, [r4, #1]
 8002742:	464a      	mov	r2, r9
 8002744:	2301      	movs	r3, #1
 8002746:	f006 fdbf 	bl	80092c8 <disk_read>
 800274a:	2800      	cmp	r0, #0
 800274c:	f040 80d8 	bne.w	8002900 <chk_mounted+0x308>
 8002750:	f894 322f 	ldrb.w	r3, [r4, #559]	; 0x22f
 8002754:	f894 e22e 	ldrb.w	lr, [r4, #558]	; 0x22e
 8002758:	ea4e 2c03 	orr.w	ip, lr, r3, lsl #8
 800275c:	fa0f f08c 	sxth.w	r0, ip
 8002760:	42b8      	cmp	r0, r7
 8002762:	d18d      	bne.n	8002680 <chk_mounted+0x88>
 8002764:	f894 0068 	ldrb.w	r0, [r4, #104]	; 0x68
 8002768:	f894 1069 	ldrb.w	r1, [r4, #105]	; 0x69
 800276c:	0402      	lsls	r2, r0, #16
 800276e:	f894 e066 	ldrb.w	lr, [r4, #102]	; 0x66
 8002772:	ea42 6301 	orr.w	r3, r2, r1, lsl #24
 8002776:	f894 c067 	ldrb.w	ip, [r4, #103]	; 0x67
 800277a:	ea43 000e 	orr.w	r0, r3, lr
 800277e:	ea40 220c 	orr.w	r2, r0, ip, lsl #8
 8002782:	f022 417f 	bic.w	r1, r2, #4278190080	; 0xff000000
 8002786:	4541      	cmp	r1, r8
 8002788:	f43f af70 	beq.w	800266c <chk_mounted+0x74>
 800278c:	f894 1084 	ldrb.w	r1, [r4, #132]	; 0x84
 8002790:	f894 c085 	ldrb.w	ip, [r4, #133]	; 0x85
 8002794:	040b      	lsls	r3, r1, #16
 8002796:	f894 0082 	ldrb.w	r0, [r4, #130]	; 0x82
 800279a:	ea43 620c 	orr.w	r2, r3, ip, lsl #24
 800279e:	f894 1083 	ldrb.w	r1, [r4, #131]	; 0x83
 80027a2:	ea42 0300 	orr.w	r3, r2, r0
 80027a6:	ea43 2e01 	orr.w	lr, r3, r1, lsl #8
 80027aa:	f02e 4c7f 	bic.w	ip, lr, #4278190080	; 0xff000000
 80027ae:	ebbc 0008 	subs.w	r0, ip, r8
 80027b2:	bf18      	it	ne
 80027b4:	2001      	movne	r0, #1
 80027b6:	e755      	b.n	8002664 <chk_mounted+0x6c>
 80027b8:	f894 c047 	ldrb.w	ip, [r4, #71]	; 0x47
 80027bc:	f894 3046 	ldrb.w	r3, [r4, #70]	; 0x46
 80027c0:	ea53 220c 	orrs.w	r2, r3, ip, lsl #8
 80027c4:	d10e      	bne.n	80027e4 <chk_mounted+0x1ec>
 80027c6:	f894 1056 	ldrb.w	r1, [r4, #86]	; 0x56
 80027ca:	f894 2057 	ldrb.w	r2, [r4, #87]	; 0x57
 80027ce:	040b      	lsls	r3, r1, #16
 80027d0:	f894 c054 	ldrb.w	ip, [r4, #84]	; 0x54
 80027d4:	ea43 6002 	orr.w	r0, r3, r2, lsl #24
 80027d8:	f894 e055 	ldrb.w	lr, [r4, #85]	; 0x55
 80027dc:	ea40 010c 	orr.w	r1, r0, ip
 80027e0:	ea41 220e 	orr.w	r2, r1, lr, lsl #8
 80027e4:	f894 3040 	ldrb.w	r3, [r4, #64]	; 0x40
 80027e8:	61e2      	str	r2, [r4, #28]
 80027ea:	1e58      	subs	r0, r3, #1
 80027ec:	fa5f fe80 	uxtb.w	lr, r0
 80027f0:	f1be 0f01 	cmp.w	lr, #1
 80027f4:	70e3      	strb	r3, [r4, #3]
 80027f6:	f63f af43 	bhi.w	8002680 <chk_mounted+0x88>
 80027fa:	f894 103d 	ldrb.w	r1, [r4, #61]	; 0x3d
 80027fe:	70a1      	strb	r1, [r4, #2]
 8002800:	2900      	cmp	r1, #0
 8002802:	f43f af3d 	beq.w	8002680 <chk_mounted+0x88>
 8002806:	1e48      	subs	r0, r1, #1
 8002808:	4208      	tst	r0, r1
 800280a:	f47f af39 	bne.w	8002680 <chk_mounted+0x88>
 800280e:	f894 7042 	ldrb.w	r7, [r4, #66]	; 0x42
 8002812:	f894 c041 	ldrb.w	ip, [r4, #65]	; 0x41
 8002816:	ea4c 2007 	orr.w	r0, ip, r7, lsl #8
 800281a:	f010 0f0f 	tst.w	r0, #15
 800281e:	8120      	strh	r0, [r4, #8]
 8002820:	f47f af2e 	bne.w	8002680 <chk_mounted+0x88>
 8002824:	f894 8044 	ldrb.w	r8, [r4, #68]	; 0x44
 8002828:	f894 7043 	ldrb.w	r7, [r4, #67]	; 0x43
 800282c:	ea57 2808 	orrs.w	r8, r7, r8, lsl #8
 8002830:	d10f      	bne.n	8002852 <chk_mounted+0x25a>
 8002832:	f894 c052 	ldrb.w	ip, [r4, #82]	; 0x52
 8002836:	f894 8053 	ldrb.w	r8, [r4, #83]	; 0x53
 800283a:	ea4f 4e0c 	mov.w	lr, ip, lsl #16
 800283e:	f894 7050 	ldrb.w	r7, [r4, #80]	; 0x50
 8002842:	ea4e 6808 	orr.w	r8, lr, r8, lsl #24
 8002846:	f894 e051 	ldrb.w	lr, [r4, #81]	; 0x51
 800284a:	ea48 0c07 	orr.w	ip, r8, r7
 800284e:	ea4c 280e 	orr.w	r8, ip, lr, lsl #8
 8002852:	f894 e03f 	ldrb.w	lr, [r4, #63]	; 0x3f
 8002856:	f894 703e 	ldrb.w	r7, [r4, #62]	; 0x3e
 800285a:	ea57 2c0e 	orrs.w	ip, r7, lr, lsl #8
 800285e:	f43f af0f 	beq.w	8002680 <chk_mounted+0x88>
 8002862:	fb03 f302 	mul.w	r3, r3, r2
 8002866:	eb0c 1a10 	add.w	sl, ip, r0, lsr #4
 800286a:	449a      	add	sl, r3
 800286c:	45d0      	cmp	r8, sl
 800286e:	f4ff af07 	bcc.w	8002680 <chk_mounted+0x88>
 8002872:	ebca 0808 	rsb	r8, sl, r8
 8002876:	fbb8 f1f1 	udiv	r1, r8, r1
 800287a:	2900      	cmp	r1, #0
 800287c:	f43f af00 	beq.w	8002680 <chk_mounted+0x88>
 8002880:	f640 77f5 	movw	r7, #4085	; 0xff5
 8002884:	42b9      	cmp	r1, r7
 8002886:	d945      	bls.n	8002914 <chk_mounted+0x31c>
 8002888:	f64f 7ef5 	movw	lr, #65525	; 0xfff5
 800288c:	4571      	cmp	r1, lr
 800288e:	f240 80be 	bls.w	8002a0e <chk_mounted+0x416>
 8002892:	1c8b      	adds	r3, r1, #2
 8002894:	eb0a 0709 	add.w	r7, sl, r9
 8002898:	eb09 010c 	add.w	r1, r9, ip
 800289c:	61a3      	str	r3, [r4, #24]
 800289e:	62a7      	str	r7, [r4, #40]	; 0x28
 80028a0:	6221      	str	r1, [r4, #32]
 80028a2:	2800      	cmp	r0, #0
 80028a4:	d14e      	bne.n	8002944 <chk_mounted+0x34c>
 80028a6:	f894 705e 	ldrb.w	r7, [r4, #94]	; 0x5e
 80028aa:	f894 105f 	ldrb.w	r1, [r4, #95]	; 0x5f
 80028ae:	0438      	lsls	r0, r7, #16
 80028b0:	f894 e05c 	ldrb.w	lr, [r4, #92]	; 0x5c
 80028b4:	ea40 6701 	orr.w	r7, r0, r1, lsl #24
 80028b8:	f894 005d 	ldrb.w	r0, [r4, #93]	; 0x5d
 80028bc:	ea47 0c0e 	orr.w	ip, r7, lr
 80028c0:	ea4c 2100 	orr.w	r1, ip, r0, lsl #8
 80028c4:	6261      	str	r1, [r4, #36]	; 0x24
 80028c6:	009b      	lsls	r3, r3, #2
 80028c8:	2703      	movs	r7, #3
 80028ca:	f503 70fe 	add.w	r0, r3, #508	; 0x1fc
 80028ce:	1cc1      	adds	r1, r0, #3
 80028d0:	ebb2 2f51 	cmp.w	r2, r1, lsr #9
 80028d4:	f4ff aed4 	bcc.w	8002680 <chk_mounted+0x88>
 80028d8:	2300      	movs	r3, #0
 80028da:	f04f 32ff 	mov.w	r2, #4294967295
 80028de:	2f03      	cmp	r7, #3
 80028e0:	6122      	str	r2, [r4, #16]
 80028e2:	60e3      	str	r3, [r4, #12]
 80028e4:	d033      	beq.n	800294e <chk_mounted+0x356>
 80028e6:	7027      	strb	r7, [r4, #0]
 80028e8:	88ab      	ldrh	r3, [r5, #4]
 80028ea:	2000      	movs	r0, #0
 80028ec:	1c59      	adds	r1, r3, #1
 80028ee:	80a9      	strh	r1, [r5, #4]
 80028f0:	80e1      	strh	r1, [r4, #6]
 80028f2:	62e0      	str	r0, [r4, #44]	; 0x2c
 80028f4:	7120      	strb	r0, [r4, #4]
 80028f6:	e8bd 87f0 	ldmia.w	sp!, {r4, r5, r6, r7, r8, r9, sl, pc}
 80028fa:	4630      	mov	r0, r6
 80028fc:	e8bd 87f0 	ldmia.w	sp!, {r4, r5, r6, r7, r8, r9, sl, pc}
 8002900:	2001      	movs	r0, #1
 8002902:	e8bd 87f0 	ldmia.w	sp!, {r4, r5, r6, r7, r8, r9, sl, pc}
 8002906:	bf00      	nop
 8002908:	20000930 	.word	0x20000930
 800290c:	ffffaa55 	.word	0xffffaa55
 8002910:	00544146 	.word	0x00544146
 8002914:	2701      	movs	r7, #1
 8002916:	3102      	adds	r1, #2
 8002918:	44ca      	add	sl, r9
 800291a:	44cc      	add	ip, r9
 800291c:	61a1      	str	r1, [r4, #24]
 800291e:	f8c4 a028 	str.w	sl, [r4, #40]	; 0x28
 8002922:	f8c4 c020 	str.w	ip, [r4, #32]
 8002926:	2800      	cmp	r0, #0
 8002928:	f43f aeaa 	beq.w	8002680 <chk_mounted+0x88>
 800292c:	4463      	add	r3, ip
 800292e:	2f02      	cmp	r7, #2
 8002930:	6263      	str	r3, [r4, #36]	; 0x24
 8002932:	d00a      	beq.n	800294a <chk_mounted+0x352>
 8002934:	eb01 0c41 	add.w	ip, r1, r1, lsl #1
 8002938:	f001 0e01 	and.w	lr, r1, #1
 800293c:	eb0e 035c 	add.w	r3, lr, ip, lsr #1
 8002940:	2701      	movs	r7, #1
 8002942:	e7c2      	b.n	80028ca <chk_mounted+0x2d2>
 8002944:	200d      	movs	r0, #13
 8002946:	e8bd 87f0 	ldmia.w	sp!, {r4, r5, r6, r7, r8, r9, sl, pc}
 800294a:	004b      	lsls	r3, r1, #1
 800294c:	e7bd      	b.n	80028ca <chk_mounted+0x2d2>
 800294e:	f894 1061 	ldrb.w	r1, [r4, #97]	; 0x61
 8002952:	f894 e060 	ldrb.w	lr, [r4, #96]	; 0x60
 8002956:	7163      	strb	r3, [r4, #5]
 8002958:	ea4e 2c01 	orr.w	ip, lr, r1, lsl #8
 800295c:	eb09 020c 	add.w	r2, r9, ip
 8002960:	6162      	str	r2, [r4, #20]
 8002962:	7860      	ldrb	r0, [r4, #1]
 8002964:	4631      	mov	r1, r6
 8002966:	3301      	adds	r3, #1
 8002968:	f006 fcae 	bl	80092c8 <disk_read>
 800296c:	2800      	cmp	r0, #0
 800296e:	d1ba      	bne.n	80028e6 <chk_mounted+0x2ee>
 8002970:	f894 c22f 	ldrb.w	ip, [r4, #559]	; 0x22f
 8002974:	f894 e22e 	ldrb.w	lr, [r4, #558]	; 0x22e
 8002978:	4b26      	ldr	r3, [pc, #152]	; (8002a14 <chk_mounted+0x41c>)
 800297a:	ea4e 220c 	orr.w	r2, lr, ip, lsl #8
 800297e:	b210      	sxth	r0, r2
 8002980:	4298      	cmp	r0, r3
 8002982:	d1b0      	bne.n	80028e6 <chk_mounted+0x2ee>
 8002984:	f894 2032 	ldrb.w	r2, [r4, #50]	; 0x32
 8002988:	f894 1033 	ldrb.w	r1, [r4, #51]	; 0x33
 800298c:	0410      	lsls	r0, r2, #16
 800298e:	f894 c030 	ldrb.w	ip, [r4, #48]	; 0x30
 8002992:	ea40 6e01 	orr.w	lr, r0, r1, lsl #24
 8002996:	f894 2031 	ldrb.w	r2, [r4, #49]	; 0x31
 800299a:	ea4e 030c 	orr.w	r3, lr, ip
 800299e:	481e      	ldr	r0, [pc, #120]	; (8002a18 <chk_mounted+0x420>)
 80029a0:	ea43 2102 	orr.w	r1, r3, r2, lsl #8
 80029a4:	4281      	cmp	r1, r0
 80029a6:	d19e      	bne.n	80028e6 <chk_mounted+0x2ee>
 80029a8:	f894 1216 	ldrb.w	r1, [r4, #534]	; 0x216
 80029ac:	f894 c217 	ldrb.w	ip, [r4, #535]	; 0x217
 80029b0:	040b      	lsls	r3, r1, #16
 80029b2:	f894 0214 	ldrb.w	r0, [r4, #532]	; 0x214
 80029b6:	ea43 620c 	orr.w	r2, r3, ip, lsl #24
 80029ba:	f894 e215 	ldrb.w	lr, [r4, #533]	; 0x215
 80029be:	ea42 0100 	orr.w	r1, r2, r0
 80029c2:	4b16      	ldr	r3, [pc, #88]	; (8002a1c <chk_mounted+0x424>)
 80029c4:	ea41 2c0e 	orr.w	ip, r1, lr, lsl #8
 80029c8:	459c      	cmp	ip, r3
 80029ca:	d18c      	bne.n	80028e6 <chk_mounted+0x2ee>
 80029cc:	f894 221e 	ldrb.w	r2, [r4, #542]	; 0x21e
 80029d0:	f894 321a 	ldrb.w	r3, [r4, #538]	; 0x21a
 80029d4:	f894 c21f 	ldrb.w	ip, [r4, #543]	; 0x21f
 80029d8:	f894 621b 	ldrb.w	r6, [r4, #539]	; 0x21b
 80029dc:	0410      	lsls	r0, r2, #16
 80029de:	0419      	lsls	r1, r3, #16
 80029e0:	f894 221c 	ldrb.w	r2, [r4, #540]	; 0x21c
 80029e4:	f894 3218 	ldrb.w	r3, [r4, #536]	; 0x218
 80029e8:	ea40 6e0c 	orr.w	lr, r0, ip, lsl #24
 80029ec:	ea41 6606 	orr.w	r6, r1, r6, lsl #24
 80029f0:	f894 021d 	ldrb.w	r0, [r4, #541]	; 0x21d
 80029f4:	f894 1219 	ldrb.w	r1, [r4, #537]	; 0x219
 80029f8:	ea4e 0c02 	orr.w	ip, lr, r2
 80029fc:	ea46 0e03 	orr.w	lr, r6, r3
 8002a00:	ea4c 2200 	orr.w	r2, ip, r0, lsl #8
 8002a04:	ea4e 2001 	orr.w	r0, lr, r1, lsl #8
 8002a08:	60e2      	str	r2, [r4, #12]
 8002a0a:	6120      	str	r0, [r4, #16]
 8002a0c:	e76b      	b.n	80028e6 <chk_mounted+0x2ee>
 8002a0e:	2702      	movs	r7, #2
 8002a10:	e781      	b.n	8002916 <chk_mounted+0x31e>
 8002a12:	bf00      	nop
 8002a14:	ffffaa55 	.word	0xffffaa55
 8002a18:	41615252 	.word	0x41615252
 8002a1c:	61417272 	.word	0x61417272

08002a20 <sync>:
 8002a20:	e92d 4ff0 	stmdb	sp!, {r4, r5, r6, r7, r8, r9, sl, fp, lr}
 8002a24:	6ac5      	ldr	r5, [r0, #44]	; 0x2c
 8002a26:	b083      	sub	sp, #12
 8002a28:	4604      	mov	r4, r0
 8002a2a:	b10d      	cbz	r5, 8002a30 <sync+0x10>
 8002a2c:	7903      	ldrb	r3, [r0, #4]
 8002a2e:	b97b      	cbnz	r3, 8002a50 <sync+0x30>
 8002a30:	f894 c000 	ldrb.w	ip, [r4]
 8002a34:	f1bc 0f03 	cmp.w	ip, #3
 8002a38:	d075      	beq.n	8002b26 <sync+0x106>
 8002a3a:	2100      	movs	r1, #0
 8002a3c:	7860      	ldrb	r0, [r4, #1]
 8002a3e:	460a      	mov	r2, r1
 8002a40:	f006 fe06 	bl	8009650 <disk_ioctl>
 8002a44:	3800      	subs	r0, #0
 8002a46:	bf18      	it	ne
 8002a48:	2001      	movne	r0, #1
 8002a4a:	b003      	add	sp, #12
 8002a4c:	e8bd 8ff0 	ldmia.w	sp!, {r4, r5, r6, r7, r8, r9, sl, fp, pc}
 8002a50:	f100 0630 	add.w	r6, r0, #48	; 0x30
 8002a54:	4631      	mov	r1, r6
 8002a56:	7840      	ldrb	r0, [r0, #1]
 8002a58:	462a      	mov	r2, r5
 8002a5a:	2301      	movs	r3, #1
 8002a5c:	f006 fd28 	bl	80094b0 <disk_write>
 8002a60:	2800      	cmp	r0, #0
 8002a62:	d15e      	bne.n	8002b22 <sync+0x102>
 8002a64:	69e3      	ldr	r3, [r4, #28]
 8002a66:	6a21      	ldr	r1, [r4, #32]
 8002a68:	7120      	strb	r0, [r4, #4]
 8002a6a:	185a      	adds	r2, r3, r1
 8002a6c:	4295      	cmp	r5, r2
 8002a6e:	d2df      	bcs.n	8002a30 <sync+0x10>
 8002a70:	78e7      	ldrb	r7, [r4, #3]
 8002a72:	2f01      	cmp	r7, #1
 8002a74:	d9dc      	bls.n	8002a30 <sync+0x10>
 8002a76:	f1a7 0802 	sub.w	r8, r7, #2
 8002a7a:	f018 0803 	ands.w	r8, r8, #3
 8002a7e:	d023      	beq.n	8002ac8 <sync+0xa8>
 8002a80:	18ed      	adds	r5, r5, r3
 8002a82:	7860      	ldrb	r0, [r4, #1]
 8002a84:	2301      	movs	r3, #1
 8002a86:	4631      	mov	r1, r6
 8002a88:	462a      	mov	r2, r5
 8002a8a:	f006 fd11 	bl	80094b0 <disk_write>
 8002a8e:	3f01      	subs	r7, #1
 8002a90:	f1b8 0f01 	cmp.w	r8, #1
 8002a94:	b2ff      	uxtb	r7, r7
 8002a96:	69e3      	ldr	r3, [r4, #28]
 8002a98:	d016      	beq.n	8002ac8 <sync+0xa8>
 8002a9a:	f1b8 0f02 	cmp.w	r8, #2
 8002a9e:	d009      	beq.n	8002ab4 <sync+0x94>
 8002aa0:	18ed      	adds	r5, r5, r3
 8002aa2:	4631      	mov	r1, r6
 8002aa4:	2301      	movs	r3, #1
 8002aa6:	7860      	ldrb	r0, [r4, #1]
 8002aa8:	462a      	mov	r2, r5
 8002aaa:	f006 fd01 	bl	80094b0 <disk_write>
 8002aae:	1e79      	subs	r1, r7, #1
 8002ab0:	69e3      	ldr	r3, [r4, #28]
 8002ab2:	b2cf      	uxtb	r7, r1
 8002ab4:	18ed      	adds	r5, r5, r3
 8002ab6:	7860      	ldrb	r0, [r4, #1]
 8002ab8:	2301      	movs	r3, #1
 8002aba:	4631      	mov	r1, r6
 8002abc:	462a      	mov	r2, r5
 8002abe:	f006 fcf7 	bl	80094b0 <disk_write>
 8002ac2:	1e7b      	subs	r3, r7, #1
 8002ac4:	b2df      	uxtb	r7, r3
 8002ac6:	69e3      	ldr	r3, [r4, #28]
 8002ac8:	eb05 0803 	add.w	r8, r5, r3
 8002acc:	1e7d      	subs	r5, r7, #1
 8002ace:	2301      	movs	r3, #1
 8002ad0:	4631      	mov	r1, r6
 8002ad2:	4642      	mov	r2, r8
 8002ad4:	7860      	ldrb	r0, [r4, #1]
 8002ad6:	b2ed      	uxtb	r5, r5
 8002ad8:	f006 fcea 	bl	80094b0 <disk_write>
 8002adc:	2d01      	cmp	r5, #1
 8002ade:	d0a7      	beq.n	8002a30 <sync+0x10>
 8002ae0:	69e2      	ldr	r2, [r4, #28]
 8002ae2:	4631      	mov	r1, r6
 8002ae4:	4490      	add	r8, r2
 8002ae6:	4642      	mov	r2, r8
 8002ae8:	2301      	movs	r3, #1
 8002aea:	7860      	ldrb	r0, [r4, #1]
 8002aec:	f006 fce0 	bl	80094b0 <disk_write>
 8002af0:	69e3      	ldr	r3, [r4, #28]
 8002af2:	4631      	mov	r1, r6
 8002af4:	4498      	add	r8, r3
 8002af6:	4642      	mov	r2, r8
 8002af8:	2301      	movs	r3, #1
 8002afa:	7860      	ldrb	r0, [r4, #1]
 8002afc:	f006 fcd8 	bl	80094b0 <disk_write>
 8002b00:	1e6f      	subs	r7, r5, #1
 8002b02:	69e0      	ldr	r0, [r4, #28]
 8002b04:	b2fd      	uxtb	r5, r7
 8002b06:	1e6f      	subs	r7, r5, #1
 8002b08:	eb08 0500 	add.w	r5, r8, r0
 8002b0c:	b2ff      	uxtb	r7, r7
 8002b0e:	2301      	movs	r3, #1
 8002b10:	7860      	ldrb	r0, [r4, #1]
 8002b12:	4631      	mov	r1, r6
 8002b14:	462a      	mov	r2, r5
 8002b16:	f006 fccb 	bl	80094b0 <disk_write>
 8002b1a:	1e7b      	subs	r3, r7, #1
 8002b1c:	b2df      	uxtb	r7, r3
 8002b1e:	69e3      	ldr	r3, [r4, #28]
 8002b20:	e7d2      	b.n	8002ac8 <sync+0xa8>
 8002b22:	2001      	movs	r0, #1
 8002b24:	e791      	b.n	8002a4a <sync+0x2a>
 8002b26:	7961      	ldrb	r1, [r4, #5]
 8002b28:	2900      	cmp	r1, #0
 8002b2a:	d086      	beq.n	8002a3a <sync+0x1a>
 8002b2c:	2500      	movs	r5, #0
 8002b2e:	f104 0130 	add.w	r1, r4, #48	; 0x30
 8002b32:	62e5      	str	r5, [r4, #44]	; 0x2c
 8002b34:	460b      	mov	r3, r1
 8002b36:	f504 700c 	add.w	r0, r4, #560	; 0x230
 8002b3a:	461e      	mov	r6, r3
 8002b3c:	f846 5b04 	str.w	r5, [r6], #4
 8002b40:	605d      	str	r5, [r3, #4]
 8002b42:	6075      	str	r5, [r6, #4]
 8002b44:	60dd      	str	r5, [r3, #12]
 8002b46:	3310      	adds	r3, #16
 8002b48:	4283      	cmp	r3, r0
 8002b4a:	d1f6      	bne.n	8002b3a <sync+0x11a>
 8002b4c:	68e3      	ldr	r3, [r4, #12]
 8002b4e:	6922      	ldr	r2, [r4, #16]
 8002b50:	ea4f 4b13 	mov.w	fp, r3, lsr #16
 8002b54:	f8cd b000 	str.w	fp, [sp]
 8002b58:	ea4f 6b13 	mov.w	fp, r3, lsr #24
 8002b5c:	f8cd b004 	str.w	fp, [sp, #4]
 8002b60:	f04f 0b55 	mov.w	fp, #85	; 0x55
 8002b64:	f884 b22e 	strb.w	fp, [r4, #558]	; 0x22e
 8002b68:	f04f 0e52 	mov.w	lr, #82	; 0x52
 8002b6c:	2061      	movs	r0, #97	; 0x61
 8002b6e:	f3c3 2c07 	ubfx	ip, r3, #8, #8
 8002b72:	2641      	movs	r6, #65	; 0x41
 8002b74:	2772      	movs	r7, #114	; 0x72
 8002b76:	f3c2 2a07 	ubfx	sl, r2, #8, #8
 8002b7a:	ea4f 4912 	mov.w	r9, r2, lsr #16
 8002b7e:	ea4f 6812 	mov.w	r8, r2, lsr #24
 8002b82:	f04f 0baa 	mov.w	fp, #170	; 0xaa
 8002b86:	f884 2218 	strb.w	r2, [r4, #536]	; 0x218
 8002b8a:	f884 321c 	strb.w	r3, [r4, #540]	; 0x21c
 8002b8e:	f884 b22f 	strb.w	fp, [r4, #559]	; 0x22f
 8002b92:	f884 e030 	strb.w	lr, [r4, #48]	; 0x30
 8002b96:	f884 e031 	strb.w	lr, [r4, #49]	; 0x31
 8002b9a:	f884 0032 	strb.w	r0, [r4, #50]	; 0x32
 8002b9e:	f884 6033 	strb.w	r6, [r4, #51]	; 0x33
 8002ba2:	f884 7214 	strb.w	r7, [r4, #532]	; 0x214
 8002ba6:	f884 7215 	strb.w	r7, [r4, #533]	; 0x215
 8002baa:	f884 6216 	strb.w	r6, [r4, #534]	; 0x216
 8002bae:	f884 0217 	strb.w	r0, [r4, #535]	; 0x217
 8002bb2:	f884 a219 	strb.w	sl, [r4, #537]	; 0x219
 8002bb6:	f884 921a 	strb.w	r9, [r4, #538]	; 0x21a
 8002bba:	f884 821b 	strb.w	r8, [r4, #539]	; 0x21b
 8002bbe:	f884 c21d 	strb.w	ip, [r4, #541]	; 0x21d
 8002bc2:	9800      	ldr	r0, [sp, #0]
 8002bc4:	6962      	ldr	r2, [r4, #20]
 8002bc6:	f884 021e 	strb.w	r0, [r4, #542]	; 0x21e
 8002bca:	f8dd b004 	ldr.w	fp, [sp, #4]
 8002bce:	7860      	ldrb	r0, [r4, #1]
 8002bd0:	f884 b21f 	strb.w	fp, [r4, #543]	; 0x21f
 8002bd4:	2301      	movs	r3, #1
 8002bd6:	f006 fc6b 	bl	80094b0 <disk_write>
 8002bda:	7165      	strb	r5, [r4, #5]
 8002bdc:	e72d      	b.n	8002a3a <sync+0x1a>
 8002bde:	bf00      	nop

08002be0 <clust2sect>:
 8002be0:	6982      	ldr	r2, [r0, #24]
 8002be2:	3902      	subs	r1, #2
 8002be4:	1e93      	subs	r3, r2, #2
 8002be6:	4299      	cmp	r1, r3
 8002be8:	d205      	bcs.n	8002bf6 <clust2sect+0x16>
 8002bea:	f890 c002 	ldrb.w	ip, [r0, #2]
 8002bee:	6a80      	ldr	r0, [r0, #40]	; 0x28
 8002bf0:	fb0c 0001 	mla	r0, ip, r1, r0
 8002bf4:	4770      	bx	lr
 8002bf6:	2000      	movs	r0, #0
 8002bf8:	4770      	bx	lr
 8002bfa:	bf00      	nop

08002bfc <get_fat>:
 8002bfc:	e92d 4ff0 	stmdb	sp!, {r4, r5, r6, r7, r8, r9, sl, fp, lr}
 8002c00:	2901      	cmp	r1, #1
 8002c02:	b083      	sub	sp, #12
 8002c04:	460d      	mov	r5, r1
 8002c06:	4604      	mov	r4, r0
 8002c08:	d90e      	bls.n	8002c28 <get_fat+0x2c>
 8002c0a:	6983      	ldr	r3, [r0, #24]
 8002c0c:	4299      	cmp	r1, r3
 8002c0e:	d20b      	bcs.n	8002c28 <get_fat+0x2c>
 8002c10:	7803      	ldrb	r3, [r0, #0]
 8002c12:	2b02      	cmp	r3, #2
 8002c14:	d00a      	beq.n	8002c2c <get_fat+0x30>
 8002c16:	2b03      	cmp	r3, #3
 8002c18:	d059      	beq.n	8002cce <get_fat+0xd2>
 8002c1a:	2b01      	cmp	r3, #1
 8002c1c:	d01f      	beq.n	8002c5e <get_fat+0x62>
 8002c1e:	f04f 30ff 	mov.w	r0, #4294967295
 8002c22:	b003      	add	sp, #12
 8002c24:	e8bd 8ff0 	ldmia.w	sp!, {r4, r5, r6, r7, r8, r9, sl, fp, pc}
 8002c28:	2001      	movs	r0, #1
 8002c2a:	e7fa      	b.n	8002c22 <get_fat+0x26>
 8002c2c:	6a02      	ldr	r2, [r0, #32]
 8002c2e:	6ac6      	ldr	r6, [r0, #44]	; 0x2c
 8002c30:	eb02 2811 	add.w	r8, r2, r1, lsr #8
 8002c34:	45b0      	cmp	r8, r6
 8002c36:	d007      	beq.n	8002c48 <get_fat+0x4c>
 8002c38:	7901      	ldrb	r1, [r0, #4]
 8002c3a:	2900      	cmp	r1, #0
 8002c3c:	f040 80d4 	bne.w	8002de8 <get_fat+0x1ec>
 8002c40:	f1b8 0f00 	cmp.w	r8, #0
 8002c44:	f040 8225 	bne.w	8003092 <get_fat+0x496>
 8002c48:	062d      	lsls	r5, r5, #24
 8002c4a:	0ded      	lsrs	r5, r5, #23
 8002c4c:	1963      	adds	r3, r4, r5
 8002c4e:	f893 1030 	ldrb.w	r1, [r3, #48]	; 0x30
 8002c52:	f893 c031 	ldrb.w	ip, [r3, #49]	; 0x31
 8002c56:	461c      	mov	r4, r3
 8002c58:	ea41 200c 	orr.w	r0, r1, ip, lsl #8
 8002c5c:	e7e1      	b.n	8002c22 <get_fat+0x26>
 8002c5e:	6a02      	ldr	r2, [r0, #32]
 8002c60:	eb01 0951 	add.w	r9, r1, r1, lsr #1
 8002c64:	f8d0 802c 	ldr.w	r8, [r0, #44]	; 0x2c
 8002c68:	eb02 2659 	add.w	r6, r2, r9, lsr #9
 8002c6c:	4546      	cmp	r6, r8
 8002c6e:	d008      	beq.n	8002c82 <get_fat+0x86>
 8002c70:	7902      	ldrb	r2, [r0, #4]
 8002c72:	2a00      	cmp	r2, #0
 8002c74:	f040 8128 	bne.w	8002ec8 <get_fat+0x2cc>
 8002c78:	2e00      	cmp	r6, #0
 8002c7a:	f040 81fd 	bne.w	8003078 <get_fat+0x47c>
 8002c7e:	6a22      	ldr	r2, [r4, #32]
 8002c80:	6ae6      	ldr	r6, [r4, #44]	; 0x2c
 8002c82:	ea4f 50c9 	mov.w	r0, r9, lsl #23
 8002c86:	0dc3      	lsrs	r3, r0, #23
 8002c88:	f109 0a01 	add.w	sl, r9, #1
 8002c8c:	eb04 0c03 	add.w	ip, r4, r3
 8002c90:	eb02 285a 	add.w	r8, r2, sl, lsr #9
 8002c94:	f89c 1030 	ldrb.w	r1, [ip, #48]	; 0x30
 8002c98:	45b0      	cmp	r8, r6
 8002c9a:	9101      	str	r1, [sp, #4]
 8002c9c:	d007      	beq.n	8002cae <get_fat+0xb2>
 8002c9e:	7922      	ldrb	r2, [r4, #4]
 8002ca0:	2a00      	cmp	r2, #0
 8002ca2:	f040 817b 	bne.w	8002f9c <get_fat+0x3a0>
 8002ca6:	f1b8 0f00 	cmp.w	r8, #0
 8002caa:	f040 820f 	bne.w	80030cc <get_fat+0x4d0>
 8002cae:	ea4f 5aca 	mov.w	sl, sl, lsl #23
 8002cb2:	ea4f 5ada 	mov.w	sl, sl, lsr #23
 8002cb6:	4454      	add	r4, sl
 8002cb8:	f894 c030 	ldrb.w	ip, [r4, #48]	; 0x30
 8002cbc:	9901      	ldr	r1, [sp, #4]
 8002cbe:	f015 0f01 	tst.w	r5, #1
 8002cc2:	ea41 200c 	orr.w	r0, r1, ip, lsl #8
 8002cc6:	f000 81fe 	beq.w	80030c6 <get_fat+0x4ca>
 8002cca:	0900      	lsrs	r0, r0, #4
 8002ccc:	e7a9      	b.n	8002c22 <get_fat+0x26>
 8002cce:	6a02      	ldr	r2, [r0, #32]
 8002cd0:	6ac6      	ldr	r6, [r0, #44]	; 0x2c
 8002cd2:	eb02 18d1 	add.w	r8, r2, r1, lsr #7
 8002cd6:	45b0      	cmp	r8, r6
 8002cd8:	d005      	beq.n	8002ce6 <get_fat+0xea>
 8002cda:	7901      	ldrb	r1, [r0, #4]
 8002cdc:	b9c9      	cbnz	r1, 8002d12 <get_fat+0x116>
 8002cde:	f1b8 0f00 	cmp.w	r8, #0
 8002ce2:	f040 81e3 	bne.w	80030ac <get_fat+0x4b0>
 8002ce6:	066d      	lsls	r5, r5, #25
 8002ce8:	0ded      	lsrs	r5, r5, #23
 8002cea:	f105 0030 	add.w	r0, r5, #48	; 0x30
 8002cee:	1821      	adds	r1, r4, r0
 8002cf0:	78cb      	ldrb	r3, [r1, #3]
 8002cf2:	f891 c002 	ldrb.w	ip, [r1, #2]
 8002cf6:	061a      	lsls	r2, r3, #24
 8002cf8:	7848      	ldrb	r0, [r1, #1]
 8002cfa:	1964      	adds	r4, r4, r5
 8002cfc:	ea42 420c 	orr.w	r2, r2, ip, lsl #16
 8002d00:	f894 3030 	ldrb.w	r3, [r4, #48]	; 0x30
 8002d04:	ea42 2100 	orr.w	r1, r2, r0, lsl #8
 8002d08:	ea41 0c03 	orr.w	ip, r1, r3
 8002d0c:	f02c 4070 	bic.w	r0, ip, #4026531840	; 0xf0000000
 8002d10:	e787      	b.n	8002c22 <get_fat+0x26>
 8002d12:	f100 0930 	add.w	r9, r0, #48	; 0x30
 8002d16:	4649      	mov	r1, r9
 8002d18:	7840      	ldrb	r0, [r0, #1]
 8002d1a:	4632      	mov	r2, r6
 8002d1c:	2301      	movs	r3, #1
 8002d1e:	f006 fbc7 	bl	80094b0 <disk_write>
 8002d22:	2800      	cmp	r0, #0
 8002d24:	f47f af7b 	bne.w	8002c1e <get_fat+0x22>
 8002d28:	69e3      	ldr	r3, [r4, #28]
 8002d2a:	6a22      	ldr	r2, [r4, #32]
 8002d2c:	7120      	strb	r0, [r4, #4]
 8002d2e:	eb03 0e02 	add.w	lr, r3, r2
 8002d32:	4576      	cmp	r6, lr
 8002d34:	d2d3      	bcs.n	8002cde <get_fat+0xe2>
 8002d36:	78e7      	ldrb	r7, [r4, #3]
 8002d38:	2f01      	cmp	r7, #1
 8002d3a:	d9d0      	bls.n	8002cde <get_fat+0xe2>
 8002d3c:	f1a7 0a02 	sub.w	sl, r7, #2
 8002d40:	f01a 0a03 	ands.w	sl, sl, #3
 8002d44:	d025      	beq.n	8002d92 <get_fat+0x196>
 8002d46:	18f6      	adds	r6, r6, r3
 8002d48:	7860      	ldrb	r0, [r4, #1]
 8002d4a:	2301      	movs	r3, #1
 8002d4c:	4649      	mov	r1, r9
 8002d4e:	4632      	mov	r2, r6
 8002d50:	fa4f fa8a 	sxtb.w	sl, sl
 8002d54:	f006 fbac 	bl	80094b0 <disk_write>
 8002d58:	1e7b      	subs	r3, r7, #1
 8002d5a:	f1ba 0f01 	cmp.w	sl, #1
 8002d5e:	b2df      	uxtb	r7, r3
 8002d60:	69e3      	ldr	r3, [r4, #28]
 8002d62:	d016      	beq.n	8002d92 <get_fat+0x196>
 8002d64:	f1ba 0f02 	cmp.w	sl, #2
 8002d68:	d009      	beq.n	8002d7e <get_fat+0x182>
 8002d6a:	18f6      	adds	r6, r6, r3
 8002d6c:	7860      	ldrb	r0, [r4, #1]
 8002d6e:	2301      	movs	r3, #1
 8002d70:	4649      	mov	r1, r9
 8002d72:	4632      	mov	r2, r6
 8002d74:	f006 fb9c 	bl	80094b0 <disk_write>
 8002d78:	1e78      	subs	r0, r7, #1
 8002d7a:	69e3      	ldr	r3, [r4, #28]
 8002d7c:	b2c7      	uxtb	r7, r0
 8002d7e:	18f6      	adds	r6, r6, r3
 8002d80:	7860      	ldrb	r0, [r4, #1]
 8002d82:	2301      	movs	r3, #1
 8002d84:	4649      	mov	r1, r9
 8002d86:	4632      	mov	r2, r6
 8002d88:	f006 fb92 	bl	80094b0 <disk_write>
 8002d8c:	3f01      	subs	r7, #1
 8002d8e:	69e3      	ldr	r3, [r4, #28]
 8002d90:	b2ff      	uxtb	r7, r7
 8002d92:	18f6      	adds	r6, r6, r3
 8002d94:	3f01      	subs	r7, #1
 8002d96:	2301      	movs	r3, #1
 8002d98:	4649      	mov	r1, r9
 8002d9a:	4632      	mov	r2, r6
 8002d9c:	7860      	ldrb	r0, [r4, #1]
 8002d9e:	b2ff      	uxtb	r7, r7
 8002da0:	f006 fb86 	bl	80094b0 <disk_write>
 8002da4:	2f01      	cmp	r7, #1
 8002da6:	d09a      	beq.n	8002cde <get_fat+0xe2>
 8002da8:	69e0      	ldr	r0, [r4, #28]
 8002daa:	4649      	mov	r1, r9
 8002dac:	1836      	adds	r6, r6, r0
 8002dae:	4632      	mov	r2, r6
 8002db0:	2301      	movs	r3, #1
 8002db2:	7860      	ldrb	r0, [r4, #1]
 8002db4:	f006 fb7c 	bl	80094b0 <disk_write>
 8002db8:	69e2      	ldr	r2, [r4, #28]
 8002dba:	4649      	mov	r1, r9
 8002dbc:	18b6      	adds	r6, r6, r2
 8002dbe:	4632      	mov	r2, r6
 8002dc0:	2301      	movs	r3, #1
 8002dc2:	3f01      	subs	r7, #1
 8002dc4:	7860      	ldrb	r0, [r4, #1]
 8002dc6:	f006 fb73 	bl	80094b0 <disk_write>
 8002dca:	b2ff      	uxtb	r7, r7
 8002dcc:	69e3      	ldr	r3, [r4, #28]
 8002dce:	1e78      	subs	r0, r7, #1
 8002dd0:	18f6      	adds	r6, r6, r3
 8002dd2:	b2c7      	uxtb	r7, r0
 8002dd4:	2301      	movs	r3, #1
 8002dd6:	7860      	ldrb	r0, [r4, #1]
 8002dd8:	4649      	mov	r1, r9
 8002dda:	4632      	mov	r2, r6
 8002ddc:	3f01      	subs	r7, #1
 8002dde:	f006 fb67 	bl	80094b0 <disk_write>
 8002de2:	b2ff      	uxtb	r7, r7
 8002de4:	69e3      	ldr	r3, [r4, #28]
 8002de6:	e7d4      	b.n	8002d92 <get_fat+0x196>
 8002de8:	f100 0930 	add.w	r9, r0, #48	; 0x30
 8002dec:	4649      	mov	r1, r9
 8002dee:	7840      	ldrb	r0, [r0, #1]
 8002df0:	4632      	mov	r2, r6
 8002df2:	2301      	movs	r3, #1
 8002df4:	f006 fb5c 	bl	80094b0 <disk_write>
 8002df8:	2800      	cmp	r0, #0
 8002dfa:	f47f af10 	bne.w	8002c1e <get_fat+0x22>
 8002dfe:	69e3      	ldr	r3, [r4, #28]
 8002e00:	6a22      	ldr	r2, [r4, #32]
 8002e02:	7120      	strb	r0, [r4, #4]
 8002e04:	eb03 0e02 	add.w	lr, r3, r2
 8002e08:	4576      	cmp	r6, lr
 8002e0a:	f4bf af19 	bcs.w	8002c40 <get_fat+0x44>
 8002e0e:	78e7      	ldrb	r7, [r4, #3]
 8002e10:	2f01      	cmp	r7, #1
 8002e12:	f67f af15 	bls.w	8002c40 <get_fat+0x44>
 8002e16:	f1a7 0b02 	sub.w	fp, r7, #2
 8002e1a:	f00b 0b03 	and.w	fp, fp, #3
 8002e1e:	fa4f fa8b 	sxtb.w	sl, fp
 8002e22:	f1ba 0f00 	cmp.w	sl, #0
 8002e26:	d023      	beq.n	8002e70 <get_fat+0x274>
 8002e28:	18f6      	adds	r6, r6, r3
 8002e2a:	7860      	ldrb	r0, [r4, #1]
 8002e2c:	2301      	movs	r3, #1
 8002e2e:	4649      	mov	r1, r9
 8002e30:	4632      	mov	r2, r6
 8002e32:	f006 fb3d 	bl	80094b0 <disk_write>
 8002e36:	3f01      	subs	r7, #1
 8002e38:	f1ba 0f01 	cmp.w	sl, #1
 8002e3c:	b2ff      	uxtb	r7, r7
 8002e3e:	69e3      	ldr	r3, [r4, #28]
 8002e40:	d016      	beq.n	8002e70 <get_fat+0x274>
 8002e42:	f1bb 0f02 	cmp.w	fp, #2
 8002e46:	d009      	beq.n	8002e5c <get_fat+0x260>
 8002e48:	18f6      	adds	r6, r6, r3
 8002e4a:	4632      	mov	r2, r6
 8002e4c:	2301      	movs	r3, #1
 8002e4e:	7860      	ldrb	r0, [r4, #1]
 8002e50:	4649      	mov	r1, r9
 8002e52:	f006 fb2d 	bl	80094b0 <disk_write>
 8002e56:	1e7a      	subs	r2, r7, #1
 8002e58:	69e3      	ldr	r3, [r4, #28]
 8002e5a:	b2d7      	uxtb	r7, r2
 8002e5c:	18f6      	adds	r6, r6, r3
 8002e5e:	4649      	mov	r1, r9
 8002e60:	2301      	movs	r3, #1
 8002e62:	7860      	ldrb	r0, [r4, #1]
 8002e64:	4632      	mov	r2, r6
 8002e66:	f006 fb23 	bl	80094b0 <disk_write>
 8002e6a:	1e79      	subs	r1, r7, #1
 8002e6c:	69e3      	ldr	r3, [r4, #28]
 8002e6e:	b2cf      	uxtb	r7, r1
 8002e70:	18f6      	adds	r6, r6, r3
 8002e72:	3f01      	subs	r7, #1
 8002e74:	2301      	movs	r3, #1
 8002e76:	4649      	mov	r1, r9
 8002e78:	4632      	mov	r2, r6
 8002e7a:	7860      	ldrb	r0, [r4, #1]
 8002e7c:	b2ff      	uxtb	r7, r7
 8002e7e:	f006 fb17 	bl	80094b0 <disk_write>
 8002e82:	2f01      	cmp	r7, #1
 8002e84:	f43f aedc 	beq.w	8002c40 <get_fat+0x44>
 8002e88:	69e0      	ldr	r0, [r4, #28]
 8002e8a:	4649      	mov	r1, r9
 8002e8c:	1836      	adds	r6, r6, r0
 8002e8e:	4632      	mov	r2, r6
 8002e90:	2301      	movs	r3, #1
 8002e92:	7860      	ldrb	r0, [r4, #1]
 8002e94:	f006 fb0c 	bl	80094b0 <disk_write>
 8002e98:	69e2      	ldr	r2, [r4, #28]
 8002e9a:	4649      	mov	r1, r9
 8002e9c:	18b6      	adds	r6, r6, r2
 8002e9e:	4632      	mov	r2, r6
 8002ea0:	2301      	movs	r3, #1
 8002ea2:	7860      	ldrb	r0, [r4, #1]
 8002ea4:	f006 fb04 	bl	80094b0 <disk_write>
 8002ea8:	3f01      	subs	r7, #1
 8002eaa:	69e3      	ldr	r3, [r4, #28]
 8002eac:	b2ff      	uxtb	r7, r7
 8002eae:	1e78      	subs	r0, r7, #1
 8002eb0:	18f6      	adds	r6, r6, r3
 8002eb2:	b2c7      	uxtb	r7, r0
 8002eb4:	4649      	mov	r1, r9
 8002eb6:	2301      	movs	r3, #1
 8002eb8:	7860      	ldrb	r0, [r4, #1]
 8002eba:	4632      	mov	r2, r6
 8002ebc:	f006 faf8 	bl	80094b0 <disk_write>
 8002ec0:	1e79      	subs	r1, r7, #1
 8002ec2:	b2cf      	uxtb	r7, r1
 8002ec4:	69e3      	ldr	r3, [r4, #28]
 8002ec6:	e7d3      	b.n	8002e70 <get_fat+0x274>
 8002ec8:	f100 0a30 	add.w	sl, r0, #48	; 0x30
 8002ecc:	4651      	mov	r1, sl
 8002ece:	7840      	ldrb	r0, [r0, #1]
 8002ed0:	4642      	mov	r2, r8
 8002ed2:	f006 faed 	bl	80094b0 <disk_write>
 8002ed6:	2800      	cmp	r0, #0
 8002ed8:	f47f aea1 	bne.w	8002c1e <get_fat+0x22>
 8002edc:	69e3      	ldr	r3, [r4, #28]
 8002ede:	6a21      	ldr	r1, [r4, #32]
 8002ee0:	7120      	strb	r0, [r4, #4]
 8002ee2:	1858      	adds	r0, r3, r1
 8002ee4:	4580      	cmp	r8, r0
 8002ee6:	f4bf aec7 	bcs.w	8002c78 <get_fat+0x7c>
 8002eea:	78e7      	ldrb	r7, [r4, #3]
 8002eec:	2f01      	cmp	r7, #1
 8002eee:	f67f aec3 	bls.w	8002c78 <get_fat+0x7c>
 8002ef2:	f1a7 0b02 	sub.w	fp, r7, #2
 8002ef6:	f01b 0b03 	ands.w	fp, fp, #3
 8002efa:	d023      	beq.n	8002f44 <get_fat+0x348>
 8002efc:	4498      	add	r8, r3
 8002efe:	7860      	ldrb	r0, [r4, #1]
 8002f00:	2301      	movs	r3, #1
 8002f02:	4651      	mov	r1, sl
 8002f04:	4642      	mov	r2, r8
 8002f06:	f006 fad3 	bl	80094b0 <disk_write>
 8002f0a:	1e78      	subs	r0, r7, #1
 8002f0c:	f1bb 0f01 	cmp.w	fp, #1
 8002f10:	b2c7      	uxtb	r7, r0
 8002f12:	69e3      	ldr	r3, [r4, #28]
 8002f14:	d016      	beq.n	8002f44 <get_fat+0x348>
 8002f16:	f1bb 0f02 	cmp.w	fp, #2
 8002f1a:	d009      	beq.n	8002f30 <get_fat+0x334>
 8002f1c:	4498      	add	r8, r3
 8002f1e:	7860      	ldrb	r0, [r4, #1]
 8002f20:	2301      	movs	r3, #1
 8002f22:	4651      	mov	r1, sl
 8002f24:	4642      	mov	r2, r8
 8002f26:	f006 fac3 	bl	80094b0 <disk_write>
 8002f2a:	3f01      	subs	r7, #1
 8002f2c:	69e3      	ldr	r3, [r4, #28]
 8002f2e:	b2ff      	uxtb	r7, r7
 8002f30:	4498      	add	r8, r3
 8002f32:	4642      	mov	r2, r8
 8002f34:	2301      	movs	r3, #1
 8002f36:	7860      	ldrb	r0, [r4, #1]
 8002f38:	4651      	mov	r1, sl
 8002f3a:	f006 fab9 	bl	80094b0 <disk_write>
 8002f3e:	1e7a      	subs	r2, r7, #1
 8002f40:	69e3      	ldr	r3, [r4, #28]
 8002f42:	b2d7      	uxtb	r7, r2
 8002f44:	4498      	add	r8, r3
 8002f46:	3f01      	subs	r7, #1
 8002f48:	2301      	movs	r3, #1
 8002f4a:	4651      	mov	r1, sl
 8002f4c:	4642      	mov	r2, r8
 8002f4e:	7860      	ldrb	r0, [r4, #1]
 8002f50:	b2ff      	uxtb	r7, r7
 8002f52:	f006 faad 	bl	80094b0 <disk_write>
 8002f56:	2f01      	cmp	r7, #1
 8002f58:	f43f ae8e 	beq.w	8002c78 <get_fat+0x7c>
 8002f5c:	69e2      	ldr	r2, [r4, #28]
 8002f5e:	4651      	mov	r1, sl
 8002f60:	4490      	add	r8, r2
 8002f62:	4642      	mov	r2, r8
 8002f64:	2301      	movs	r3, #1
 8002f66:	7860      	ldrb	r0, [r4, #1]
 8002f68:	f006 faa2 	bl	80094b0 <disk_write>
 8002f6c:	69e0      	ldr	r0, [r4, #28]
 8002f6e:	4651      	mov	r1, sl
 8002f70:	4480      	add	r8, r0
 8002f72:	4642      	mov	r2, r8
 8002f74:	2301      	movs	r3, #1
 8002f76:	7860      	ldrb	r0, [r4, #1]
 8002f78:	f006 fa9a 	bl	80094b0 <disk_write>
 8002f7c:	3f01      	subs	r7, #1
 8002f7e:	69e3      	ldr	r3, [r4, #28]
 8002f80:	b2ff      	uxtb	r7, r7
 8002f82:	1e7a      	subs	r2, r7, #1
 8002f84:	4498      	add	r8, r3
 8002f86:	b2d7      	uxtb	r7, r2
 8002f88:	2301      	movs	r3, #1
 8002f8a:	4642      	mov	r2, r8
 8002f8c:	7860      	ldrb	r0, [r4, #1]
 8002f8e:	4651      	mov	r1, sl
 8002f90:	f006 fa8e 	bl	80094b0 <disk_write>
 8002f94:	1e7a      	subs	r2, r7, #1
 8002f96:	b2d7      	uxtb	r7, r2
 8002f98:	69e3      	ldr	r3, [r4, #28]
 8002f9a:	e7d3      	b.n	8002f44 <get_fat+0x348>
 8002f9c:	f104 0930 	add.w	r9, r4, #48	; 0x30
 8002fa0:	7860      	ldrb	r0, [r4, #1]
 8002fa2:	4649      	mov	r1, r9
 8002fa4:	4632      	mov	r2, r6
 8002fa6:	2301      	movs	r3, #1
 8002fa8:	f006 fa82 	bl	80094b0 <disk_write>
 8002fac:	2800      	cmp	r0, #0
 8002fae:	f47f ae36 	bne.w	8002c1e <get_fat+0x22>
 8002fb2:	69e3      	ldr	r3, [r4, #28]
 8002fb4:	6a21      	ldr	r1, [r4, #32]
 8002fb6:	7120      	strb	r0, [r4, #4]
 8002fb8:	eb03 0e01 	add.w	lr, r3, r1
 8002fbc:	4576      	cmp	r6, lr
 8002fbe:	f4bf ae72 	bcs.w	8002ca6 <get_fat+0xaa>
 8002fc2:	78e7      	ldrb	r7, [r4, #3]
 8002fc4:	2f01      	cmp	r7, #1
 8002fc6:	f67f ae6e 	bls.w	8002ca6 <get_fat+0xaa>
 8002fca:	f1a7 0b02 	sub.w	fp, r7, #2
 8002fce:	f01b 0b03 	ands.w	fp, fp, #3
 8002fd2:	d023      	beq.n	800301c <get_fat+0x420>
 8002fd4:	18f6      	adds	r6, r6, r3
 8002fd6:	4632      	mov	r2, r6
 8002fd8:	2301      	movs	r3, #1
 8002fda:	7860      	ldrb	r0, [r4, #1]
 8002fdc:	4649      	mov	r1, r9
 8002fde:	f006 fa67 	bl	80094b0 <disk_write>
 8002fe2:	1e7a      	subs	r2, r7, #1
 8002fe4:	f1bb 0f01 	cmp.w	fp, #1
 8002fe8:	b2d7      	uxtb	r7, r2
 8002fea:	69e3      	ldr	r3, [r4, #28]
 8002fec:	d016      	beq.n	800301c <get_fat+0x420>
 8002fee:	f1bb 0f02 	cmp.w	fp, #2
 8002ff2:	d009      	beq.n	8003008 <get_fat+0x40c>
 8002ff4:	18f6      	adds	r6, r6, r3
 8002ff6:	4649      	mov	r1, r9
 8002ff8:	2301      	movs	r3, #1
 8002ffa:	7860      	ldrb	r0, [r4, #1]
 8002ffc:	4632      	mov	r2, r6
 8002ffe:	f006 fa57 	bl	80094b0 <disk_write>
 8003002:	1e79      	subs	r1, r7, #1
 8003004:	69e3      	ldr	r3, [r4, #28]
 8003006:	b2cf      	uxtb	r7, r1
 8003008:	18f6      	adds	r6, r6, r3
 800300a:	7860      	ldrb	r0, [r4, #1]
 800300c:	2301      	movs	r3, #1
 800300e:	4649      	mov	r1, r9
 8003010:	4632      	mov	r2, r6
 8003012:	f006 fa4d 	bl	80094b0 <disk_write>
 8003016:	1e7b      	subs	r3, r7, #1
 8003018:	b2df      	uxtb	r7, r3
 800301a:	69e3      	ldr	r3, [r4, #28]
 800301c:	18f6      	adds	r6, r6, r3
 800301e:	3f01      	subs	r7, #1
 8003020:	2301      	movs	r3, #1
 8003022:	4649      	mov	r1, r9
 8003024:	4632      	mov	r2, r6
 8003026:	7860      	ldrb	r0, [r4, #1]
 8003028:	b2ff      	uxtb	r7, r7
 800302a:	f006 fa41 	bl	80094b0 <disk_write>
 800302e:	2f01      	cmp	r7, #1
 8003030:	f43f ae39 	beq.w	8002ca6 <get_fat+0xaa>
 8003034:	69e0      	ldr	r0, [r4, #28]
 8003036:	4649      	mov	r1, r9
 8003038:	eb06 0b00 	add.w	fp, r6, r0
 800303c:	465a      	mov	r2, fp
 800303e:	2301      	movs	r3, #1
 8003040:	7860      	ldrb	r0, [r4, #1]
 8003042:	f006 fa35 	bl	80094b0 <disk_write>
 8003046:	69e2      	ldr	r2, [r4, #28]
 8003048:	4649      	mov	r1, r9
 800304a:	4493      	add	fp, r2
 800304c:	465a      	mov	r2, fp
 800304e:	2301      	movs	r3, #1
 8003050:	7860      	ldrb	r0, [r4, #1]
 8003052:	f006 fa2d 	bl	80094b0 <disk_write>
 8003056:	3f01      	subs	r7, #1
 8003058:	69e3      	ldr	r3, [r4, #28]
 800305a:	b2fe      	uxtb	r6, r7
 800305c:	1e70      	subs	r0, r6, #1
 800305e:	eb0b 0603 	add.w	r6, fp, r3
 8003062:	b2c7      	uxtb	r7, r0
 8003064:	2301      	movs	r3, #1
 8003066:	7860      	ldrb	r0, [r4, #1]
 8003068:	4649      	mov	r1, r9
 800306a:	4632      	mov	r2, r6
 800306c:	f006 fa20 	bl	80094b0 <disk_write>
 8003070:	1e7b      	subs	r3, r7, #1
 8003072:	b2df      	uxtb	r7, r3
 8003074:	69e3      	ldr	r3, [r4, #28]
 8003076:	e7d1      	b.n	800301c <get_fat+0x420>
 8003078:	7860      	ldrb	r0, [r4, #1]
 800307a:	f104 0130 	add.w	r1, r4, #48	; 0x30
 800307e:	4632      	mov	r2, r6
 8003080:	2301      	movs	r3, #1
 8003082:	f006 f921 	bl	80092c8 <disk_read>
 8003086:	2800      	cmp	r0, #0
 8003088:	f47f adc9 	bne.w	8002c1e <get_fat+0x22>
 800308c:	6a22      	ldr	r2, [r4, #32]
 800308e:	62e6      	str	r6, [r4, #44]	; 0x2c
 8003090:	e5f7      	b.n	8002c82 <get_fat+0x86>
 8003092:	7860      	ldrb	r0, [r4, #1]
 8003094:	f104 0130 	add.w	r1, r4, #48	; 0x30
 8003098:	4642      	mov	r2, r8
 800309a:	2301      	movs	r3, #1
 800309c:	f006 f914 	bl	80092c8 <disk_read>
 80030a0:	2800      	cmp	r0, #0
 80030a2:	f47f adbc 	bne.w	8002c1e <get_fat+0x22>
 80030a6:	f8c4 802c 	str.w	r8, [r4, #44]	; 0x2c
 80030aa:	e5cd      	b.n	8002c48 <get_fat+0x4c>
 80030ac:	7860      	ldrb	r0, [r4, #1]
 80030ae:	f104 0130 	add.w	r1, r4, #48	; 0x30
 80030b2:	4642      	mov	r2, r8
 80030b4:	2301      	movs	r3, #1
 80030b6:	f006 f907 	bl	80092c8 <disk_read>
 80030ba:	2800      	cmp	r0, #0
 80030bc:	f47f adaf 	bne.w	8002c1e <get_fat+0x22>
 80030c0:	f8c4 802c 	str.w	r8, [r4, #44]	; 0x2c
 80030c4:	e60f      	b.n	8002ce6 <get_fat+0xea>
 80030c6:	0503      	lsls	r3, r0, #20
 80030c8:	0d18      	lsrs	r0, r3, #20
 80030ca:	e5aa      	b.n	8002c22 <get_fat+0x26>
 80030cc:	7860      	ldrb	r0, [r4, #1]
 80030ce:	f104 0130 	add.w	r1, r4, #48	; 0x30
 80030d2:	4642      	mov	r2, r8
 80030d4:	2301      	movs	r3, #1
 80030d6:	f006 f8f7 	bl	80092c8 <disk_read>
 80030da:	2800      	cmp	r0, #0
 80030dc:	f47f ad9f 	bne.w	8002c1e <get_fat+0x22>
 80030e0:	f8c4 802c 	str.w	r8, [r4, #44]	; 0x2c
 80030e4:	e5e3      	b.n	8002cae <get_fat+0xb2>
 80030e6:	bf00      	nop

080030e8 <dir_sdi>:
 80030e8:	b5f8      	push	{r3, r4, r5, r6, r7, lr}
 80030ea:	6883      	ldr	r3, [r0, #8]
 80030ec:	4605      	mov	r5, r0
 80030ee:	2b01      	cmp	r3, #1
 80030f0:	460c      	mov	r4, r1
 80030f2:	80c1      	strh	r1, [r0, #6]
 80030f4:	d024      	beq.n	8003140 <dir_sdi+0x58>
 80030f6:	6800      	ldr	r0, [r0, #0]
 80030f8:	6982      	ldr	r2, [r0, #24]
 80030fa:	4293      	cmp	r3, r2
 80030fc:	d220      	bcs.n	8003140 <dir_sdi+0x58>
 80030fe:	b30b      	cbz	r3, 8003144 <dir_sdi+0x5c>
 8003100:	7886      	ldrb	r6, [r0, #2]
 8003102:	0136      	lsls	r6, r6, #4
 8003104:	42b4      	cmp	r4, r6
 8003106:	d337      	bcc.n	8003178 <dir_sdi+0x90>
 8003108:	4277      	negs	r7, r6
 800310a:	1ba4      	subs	r4, r4, r6
 800310c:	b2bf      	uxth	r7, r7
 800310e:	b2a4      	uxth	r4, r4
 8003110:	e009      	b.n	8003126 <dir_sdi+0x3e>
 8003112:	2801      	cmp	r0, #1
 8003114:	d914      	bls.n	8003140 <dir_sdi+0x58>
 8003116:	6828      	ldr	r0, [r5, #0]
 8003118:	f8d0 e018 	ldr.w	lr, [r0, #24]
 800311c:	4573      	cmp	r3, lr
 800311e:	d23d      	bcs.n	800319c <dir_sdi+0xb4>
 8003120:	428e      	cmp	r6, r1
 8003122:	d829      	bhi.n	8003178 <dir_sdi+0x90>
 8003124:	4614      	mov	r4, r2
 8003126:	4619      	mov	r1, r3
 8003128:	f7ff fd68 	bl	8002bfc <get_fat>
 800312c:	19e2      	adds	r2, r4, r7
 800312e:	b292      	uxth	r2, r2
 8003130:	1991      	adds	r1, r2, r6
 8003132:	f1b0 3fff 	cmp.w	r0, #4294967295
 8003136:	4603      	mov	r3, r0
 8003138:	b289      	uxth	r1, r1
 800313a:	d1ea      	bne.n	8003112 <dir_sdi+0x2a>
 800313c:	2001      	movs	r0, #1
 800313e:	bdf8      	pop	{r3, r4, r5, r6, r7, pc}
 8003140:	2002      	movs	r0, #2
 8003142:	bdf8      	pop	{r3, r4, r5, r6, r7, pc}
 8003144:	7803      	ldrb	r3, [r0, #0]
 8003146:	2b03      	cmp	r3, #3
 8003148:	d012      	beq.n	8003170 <dir_sdi+0x88>
 800314a:	8901      	ldrh	r1, [r0, #8]
 800314c:	2200      	movs	r2, #0
 800314e:	42a1      	cmp	r1, r4
 8003150:	60ea      	str	r2, [r5, #12]
 8003152:	d9f5      	bls.n	8003140 <dir_sdi+0x58>
 8003154:	6a41      	ldr	r1, [r0, #36]	; 0x24
 8003156:	f3c4 1c0f 	ubfx	ip, r4, #4, #16
 800315a:	eb0c 0301 	add.w	r3, ip, r1
 800315e:	612b      	str	r3, [r5, #16]
 8003160:	f004 040f 	and.w	r4, r4, #15
 8003164:	3030      	adds	r0, #48	; 0x30
 8003166:	0164      	lsls	r4, r4, #5
 8003168:	1900      	adds	r0, r0, r4
 800316a:	6168      	str	r0, [r5, #20]
 800316c:	2000      	movs	r0, #0
 800316e:	bdf8      	pop	{r3, r4, r5, r6, r7, pc}
 8003170:	6a43      	ldr	r3, [r0, #36]	; 0x24
 8003172:	2b00      	cmp	r3, #0
 8003174:	d0e9      	beq.n	800314a <dir_sdi+0x62>
 8003176:	e7c3      	b.n	8003100 <dir_sdi+0x18>
 8003178:	6981      	ldr	r1, [r0, #24]
 800317a:	1e9a      	subs	r2, r3, #2
 800317c:	3902      	subs	r1, #2
 800317e:	428a      	cmp	r2, r1
 8003180:	60eb      	str	r3, [r5, #12]
 8003182:	bf3c      	itt	cc
 8003184:	7881      	ldrbcc	r1, [r0, #2]
 8003186:	6a83      	ldrcc	r3, [r0, #40]	; 0x28
 8003188:	f3c4 1c0f 	ubfx	ip, r4, #4, #16
 800318c:	bf34      	ite	cc
 800318e:	fb01 3202 	mlacc	r2, r1, r2, r3
 8003192:	2200      	movcs	r2, #0
 8003194:	eb02 030c 	add.w	r3, r2, ip
 8003198:	612b      	str	r3, [r5, #16]
 800319a:	e7e1      	b.n	8003160 <dir_sdi+0x78>
 800319c:	2002      	movs	r0, #2
 800319e:	bdf8      	pop	{r3, r4, r5, r6, r7, pc}

080031a0 <put_fat>:
 80031a0:	e92d 4ff0 	stmdb	sp!, {r4, r5, r6, r7, r8, r9, sl, fp, lr}
 80031a4:	2901      	cmp	r1, #1
 80031a6:	b085      	sub	sp, #20
 80031a8:	460d      	mov	r5, r1
 80031aa:	4604      	mov	r4, r0
 80031ac:	4616      	mov	r6, r2
 80031ae:	d90e      	bls.n	80031ce <put_fat+0x2e>
 80031b0:	6983      	ldr	r3, [r0, #24]
 80031b2:	4299      	cmp	r1, r3
 80031b4:	d20b      	bcs.n	80031ce <put_fat+0x2e>
 80031b6:	7803      	ldrb	r3, [r0, #0]
 80031b8:	2b02      	cmp	r3, #2
 80031ba:	d00c      	beq.n	80031d6 <put_fat+0x36>
 80031bc:	2b03      	cmp	r3, #3
 80031be:	f000 80e3 	beq.w	8003388 <put_fat+0x1e8>
 80031c2:	2b01      	cmp	r3, #1
 80031c4:	d022      	beq.n	800320c <put_fat+0x6c>
 80031c6:	2002      	movs	r0, #2
 80031c8:	2301      	movs	r3, #1
 80031ca:	7123      	strb	r3, [r4, #4]
 80031cc:	e000      	b.n	80031d0 <put_fat+0x30>
 80031ce:	2002      	movs	r0, #2
 80031d0:	b005      	add	sp, #20
 80031d2:	e8bd 8ff0 	ldmia.w	sp!, {r4, r5, r6, r7, r8, r9, sl, fp, pc}
 80031d6:	6a02      	ldr	r2, [r0, #32]
 80031d8:	f8d0 802c 	ldr.w	r8, [r0, #44]	; 0x2c
 80031dc:	eb02 2911 	add.w	r9, r2, r1, lsr #8
 80031e0:	45c1      	cmp	r9, r8
 80031e2:	d007      	beq.n	80031f4 <put_fat+0x54>
 80031e4:	7901      	ldrb	r1, [r0, #4]
 80031e6:	2900      	cmp	r1, #0
 80031e8:	f040 816f 	bne.w	80034ca <put_fat+0x32a>
 80031ec:	f1b9 0f00 	cmp.w	r9, #0
 80031f0:	f040 8280 	bne.w	80036f4 <put_fat+0x554>
 80031f4:	062b      	lsls	r3, r5, #24
 80031f6:	0ddd      	lsrs	r5, r3, #23
 80031f8:	eb04 0c05 	add.w	ip, r4, r5
 80031fc:	f3c6 2107 	ubfx	r1, r6, #8, #8
 8003200:	f88c 6030 	strb.w	r6, [ip, #48]	; 0x30
 8003204:	2000      	movs	r0, #0
 8003206:	f88c 1031 	strb.w	r1, [ip, #49]	; 0x31
 800320a:	e7dd      	b.n	80031c8 <put_fat+0x28>
 800320c:	6a07      	ldr	r7, [r0, #32]
 800320e:	eb01 0a51 	add.w	sl, r1, r1, lsr #1
 8003212:	f8d0 902c 	ldr.w	r9, [r0, #44]	; 0x2c
 8003216:	eb07 285a 	add.w	r8, r7, sl, lsr #9
 800321a:	45c8      	cmp	r8, r9
 800321c:	d00a      	beq.n	8003234 <put_fat+0x94>
 800321e:	7902      	ldrb	r2, [r0, #4]
 8003220:	2a00      	cmp	r2, #0
 8003222:	f040 81d2 	bne.w	80035ca <put_fat+0x42a>
 8003226:	f1b8 0f00 	cmp.w	r8, #0
 800322a:	f040 8256 	bne.w	80036da <put_fat+0x53a>
 800322e:	6a27      	ldr	r7, [r4, #32]
 8003230:	f8d4 802c 	ldr.w	r8, [r4, #44]	; 0x2c
 8003234:	ea4f 53ca 	mov.w	r3, sl, lsl #23
 8003238:	0ddb      	lsrs	r3, r3, #23
 800323a:	f015 0101 	ands.w	r1, r5, #1
 800323e:	9102      	str	r1, [sp, #8]
 8003240:	f040 8240 	bne.w	80036c4 <put_fat+0x524>
 8003244:	4632      	mov	r2, r6
 8003246:	18e3      	adds	r3, r4, r3
 8003248:	f10a 0a01 	add.w	sl, sl, #1
 800324c:	eb07 275a 	add.w	r7, r7, sl, lsr #9
 8003250:	2501      	movs	r5, #1
 8003252:	4547      	cmp	r7, r8
 8003254:	f883 2030 	strb.w	r2, [r3, #48]	; 0x30
 8003258:	7125      	strb	r5, [r4, #4]
 800325a:	f000 8086 	beq.w	800336a <put_fat+0x1ca>
 800325e:	f104 0930 	add.w	r9, r4, #48	; 0x30
 8003262:	7860      	ldrb	r0, [r4, #1]
 8003264:	4649      	mov	r1, r9
 8003266:	4642      	mov	r2, r8
 8003268:	462b      	mov	r3, r5
 800326a:	f006 f921 	bl	80094b0 <disk_write>
 800326e:	2800      	cmp	r0, #0
 8003270:	f040 8231 	bne.w	80036d6 <put_fat+0x536>
 8003274:	69e3      	ldr	r3, [r4, #28]
 8003276:	6a22      	ldr	r2, [r4, #32]
 8003278:	7120      	strb	r0, [r4, #4]
 800327a:	eb03 0e02 	add.w	lr, r3, r2
 800327e:	45c6      	cmp	lr, r8
 8003280:	d970      	bls.n	8003364 <put_fat+0x1c4>
 8003282:	f894 b003 	ldrb.w	fp, [r4, #3]
 8003286:	45ab      	cmp	fp, r5
 8003288:	d96c      	bls.n	8003364 <put_fat+0x1c4>
 800328a:	f1ab 0102 	sub.w	r1, fp, #2
 800328e:	f011 0c03 	ands.w	ip, r1, #3
 8003292:	f000 826c 	beq.w	800376e <put_fat+0x5ce>
 8003296:	4498      	add	r8, r3
 8003298:	7860      	ldrb	r0, [r4, #1]
 800329a:	462b      	mov	r3, r5
 800329c:	4649      	mov	r1, r9
 800329e:	4642      	mov	r2, r8
 80032a0:	f8cd c004 	str.w	ip, [sp, #4]
 80032a4:	f006 f904 	bl	80094b0 <disk_write>
 80032a8:	f8dd c004 	ldr.w	ip, [sp, #4]
 80032ac:	f10b 3bff 	add.w	fp, fp, #4294967295
 80032b0:	f1bc 0f01 	cmp.w	ip, #1
 80032b4:	fa5f fb8b 	uxtb.w	fp, fp
 80032b8:	69e3      	ldr	r3, [r4, #28]
 80032ba:	f000 8258 	beq.w	800376e <put_fat+0x5ce>
 80032be:	f1bc 0f02 	cmp.w	ip, #2
 80032c2:	d00b      	beq.n	80032dc <put_fat+0x13c>
 80032c4:	4498      	add	r8, r3
 80032c6:	7860      	ldrb	r0, [r4, #1]
 80032c8:	462b      	mov	r3, r5
 80032ca:	4649      	mov	r1, r9
 80032cc:	4642      	mov	r2, r8
 80032ce:	f006 f8ef 	bl	80094b0 <disk_write>
 80032d2:	f10b 3cff 	add.w	ip, fp, #4294967295
 80032d6:	69e3      	ldr	r3, [r4, #28]
 80032d8:	fa5f fb8c 	uxtb.w	fp, ip
 80032dc:	4498      	add	r8, r3
 80032de:	7860      	ldrb	r0, [r4, #1]
 80032e0:	2301      	movs	r3, #1
 80032e2:	4649      	mov	r1, r9
 80032e4:	4642      	mov	r2, r8
 80032e6:	f10b 35ff 	add.w	r5, fp, #4294967295
 80032ea:	f006 f8e1 	bl	80094b0 <disk_write>
 80032ee:	fa5f fb85 	uxtb.w	fp, r5
 80032f2:	f8cd a00c 	str.w	sl, [sp, #12]
 80032f6:	69e3      	ldr	r3, [r4, #28]
 80032f8:	46ba      	mov	sl, r7
 80032fa:	4637      	mov	r7, r6
 80032fc:	e021      	b.n	8003342 <put_fat+0x1a2>
 80032fe:	69e0      	ldr	r0, [r4, #28]
 8003300:	4649      	mov	r1, r9
 8003302:	eb06 0b00 	add.w	fp, r6, r0
 8003306:	465a      	mov	r2, fp
 8003308:	2301      	movs	r3, #1
 800330a:	7860      	ldrb	r0, [r4, #1]
 800330c:	f006 f8d0 	bl	80094b0 <disk_write>
 8003310:	69e3      	ldr	r3, [r4, #28]
 8003312:	4649      	mov	r1, r9
 8003314:	eb0b 0803 	add.w	r8, fp, r3
 8003318:	4642      	mov	r2, r8
 800331a:	2301      	movs	r3, #1
 800331c:	7860      	ldrb	r0, [r4, #1]
 800331e:	f006 f8c7 	bl	80094b0 <disk_write>
 8003322:	3d01      	subs	r5, #1
 8003324:	69e2      	ldr	r2, [r4, #28]
 8003326:	b2ee      	uxtb	r6, r5
 8003328:	1e70      	subs	r0, r6, #1
 800332a:	4490      	add	r8, r2
 800332c:	b2c5      	uxtb	r5, r0
 800332e:	2301      	movs	r3, #1
 8003330:	7860      	ldrb	r0, [r4, #1]
 8003332:	4649      	mov	r1, r9
 8003334:	4642      	mov	r2, r8
 8003336:	f006 f8bb 	bl	80094b0 <disk_write>
 800333a:	1e6e      	subs	r6, r5, #1
 800333c:	69e3      	ldr	r3, [r4, #28]
 800333e:	fa5f fb86 	uxtb.w	fp, r6
 8003342:	eb08 0603 	add.w	r6, r8, r3
 8003346:	4649      	mov	r1, r9
 8003348:	2301      	movs	r3, #1
 800334a:	4632      	mov	r2, r6
 800334c:	7860      	ldrb	r0, [r4, #1]
 800334e:	f006 f8af 	bl	80094b0 <disk_write>
 8003352:	f10b 33ff 	add.w	r3, fp, #4294967295
 8003356:	b2dd      	uxtb	r5, r3
 8003358:	2d01      	cmp	r5, #1
 800335a:	d1d0      	bne.n	80032fe <put_fat+0x15e>
 800335c:	463e      	mov	r6, r7
 800335e:	4657      	mov	r7, sl
 8003360:	f8dd a00c 	ldr.w	sl, [sp, #12]
 8003364:	2f00      	cmp	r7, #0
 8003366:	f040 81dd 	bne.w	8003724 <put_fat+0x584>
 800336a:	9902      	ldr	r1, [sp, #8]
 800336c:	ea4f 5aca 	mov.w	sl, sl, lsl #23
 8003370:	ea4f 5ada 	mov.w	sl, sl, lsr #23
 8003374:	2900      	cmp	r1, #0
 8003376:	f000 81df 	beq.w	8003738 <put_fat+0x598>
 800337a:	f3c6 1607 	ubfx	r6, r6, #4, #8
 800337e:	44a2      	add	sl, r4
 8003380:	f88a 6030 	strb.w	r6, [sl, #48]	; 0x30
 8003384:	2000      	movs	r0, #0
 8003386:	e71f      	b.n	80031c8 <put_fat+0x28>
 8003388:	6a02      	ldr	r2, [r0, #32]
 800338a:	f8d0 802c 	ldr.w	r8, [r0, #44]	; 0x2c
 800338e:	eb02 19d1 	add.w	r9, r2, r1, lsr #7
 8003392:	45c1      	cmp	r9, r8
 8003394:	d005      	beq.n	80033a2 <put_fat+0x202>
 8003396:	7901      	ldrb	r1, [r0, #4]
 8003398:	b9f9      	cbnz	r1, 80033da <put_fat+0x23a>
 800339a:	f1b9 0f00 	cmp.w	r9, #0
 800339e:	f040 81b5 	bne.w	800370c <put_fat+0x56c>
 80033a2:	0669      	lsls	r1, r5, #25
 80033a4:	0dcd      	lsrs	r5, r1, #23
 80033a6:	f105 0230 	add.w	r2, r5, #48	; 0x30
 80033aa:	eb04 0c02 	add.w	ip, r4, r2
 80033ae:	f89c 0003 	ldrb.w	r0, [ip, #3]
 80033b2:	1965      	adds	r5, r4, r5
 80033b4:	0607      	lsls	r7, r0, #24
 80033b6:	f007 4370 	and.w	r3, r7, #4026531840	; 0xf0000000
 80033ba:	ea43 0606 	orr.w	r6, r3, r6
 80033be:	f3c6 2707 	ubfx	r7, r6, #8, #8
 80033c2:	0c31      	lsrs	r1, r6, #16
 80033c4:	0e32      	lsrs	r2, r6, #24
 80033c6:	f885 6030 	strb.w	r6, [r5, #48]	; 0x30
 80033ca:	2000      	movs	r0, #0
 80033cc:	f88c 7001 	strb.w	r7, [ip, #1]
 80033d0:	f88c 1002 	strb.w	r1, [ip, #2]
 80033d4:	f88c 2003 	strb.w	r2, [ip, #3]
 80033d8:	e6f6      	b.n	80031c8 <put_fat+0x28>
 80033da:	f100 0a30 	add.w	sl, r0, #48	; 0x30
 80033de:	4651      	mov	r1, sl
 80033e0:	7840      	ldrb	r0, [r0, #1]
 80033e2:	4642      	mov	r2, r8
 80033e4:	2301      	movs	r3, #1
 80033e6:	f006 f863 	bl	80094b0 <disk_write>
 80033ea:	2800      	cmp	r0, #0
 80033ec:	f040 8173 	bne.w	80036d6 <put_fat+0x536>
 80033f0:	69e3      	ldr	r3, [r4, #28]
 80033f2:	6a22      	ldr	r2, [r4, #32]
 80033f4:	7120      	strb	r0, [r4, #4]
 80033f6:	eb03 0e02 	add.w	lr, r3, r2
 80033fa:	45f0      	cmp	r8, lr
 80033fc:	d2cd      	bcs.n	800339a <put_fat+0x1fa>
 80033fe:	78e7      	ldrb	r7, [r4, #3]
 8003400:	2f01      	cmp	r7, #1
 8003402:	d9ca      	bls.n	800339a <put_fat+0x1fa>
 8003404:	f1a7 0b02 	sub.w	fp, r7, #2
 8003408:	f01b 0b03 	ands.w	fp, fp, #3
 800340c:	f000 81a3 	beq.w	8003756 <put_fat+0x5b6>
 8003410:	4498      	add	r8, r3
 8003412:	4651      	mov	r1, sl
 8003414:	2301      	movs	r3, #1
 8003416:	7860      	ldrb	r0, [r4, #1]
 8003418:	4642      	mov	r2, r8
 800341a:	fa4f fb8b 	sxtb.w	fp, fp
 800341e:	f006 f847 	bl	80094b0 <disk_write>
 8003422:	1e79      	subs	r1, r7, #1
 8003424:	f1bb 0f01 	cmp.w	fp, #1
 8003428:	b2cf      	uxtb	r7, r1
 800342a:	69e3      	ldr	r3, [r4, #28]
 800342c:	f000 8193 	beq.w	8003756 <put_fat+0x5b6>
 8003430:	f1bb 0f02 	cmp.w	fp, #2
 8003434:	d009      	beq.n	800344a <put_fat+0x2aa>
 8003436:	4498      	add	r8, r3
 8003438:	7860      	ldrb	r0, [r4, #1]
 800343a:	2301      	movs	r3, #1
 800343c:	4651      	mov	r1, sl
 800343e:	4642      	mov	r2, r8
 8003440:	f006 f836 	bl	80094b0 <disk_write>
 8003444:	3f01      	subs	r7, #1
 8003446:	69e3      	ldr	r3, [r4, #28]
 8003448:	b2ff      	uxtb	r7, r7
 800344a:	4498      	add	r8, r3
 800344c:	7860      	ldrb	r0, [r4, #1]
 800344e:	2301      	movs	r3, #1
 8003450:	4651      	mov	r1, sl
 8003452:	4642      	mov	r2, r8
 8003454:	f006 f82c 	bl	80094b0 <disk_write>
 8003458:	1e7b      	subs	r3, r7, #1
 800345a:	b2df      	uxtb	r7, r3
 800345c:	f8cd 9008 	str.w	r9, [sp, #8]
 8003460:	69e3      	ldr	r3, [r4, #28]
 8003462:	46ab      	mov	fp, r5
 8003464:	46b1      	mov	r9, r6
 8003466:	e01f      	b.n	80034a8 <put_fat+0x308>
 8003468:	69e0      	ldr	r0, [r4, #28]
 800346a:	4651      	mov	r1, sl
 800346c:	1836      	adds	r6, r6, r0
 800346e:	4632      	mov	r2, r6
 8003470:	2301      	movs	r3, #1
 8003472:	7860      	ldrb	r0, [r4, #1]
 8003474:	f006 f81c 	bl	80094b0 <disk_write>
 8003478:	69e2      	ldr	r2, [r4, #28]
 800347a:	4651      	mov	r1, sl
 800347c:	eb06 0802 	add.w	r8, r6, r2
 8003480:	4642      	mov	r2, r8
 8003482:	2301      	movs	r3, #1
 8003484:	7860      	ldrb	r0, [r4, #1]
 8003486:	f006 f813 	bl	80094b0 <disk_write>
 800348a:	1e6f      	subs	r7, r5, #1
 800348c:	69e3      	ldr	r3, [r4, #28]
 800348e:	b2fd      	uxtb	r5, r7
 8003490:	1e68      	subs	r0, r5, #1
 8003492:	4498      	add	r8, r3
 8003494:	b2c6      	uxtb	r6, r0
 8003496:	2301      	movs	r3, #1
 8003498:	7860      	ldrb	r0, [r4, #1]
 800349a:	4651      	mov	r1, sl
 800349c:	4642      	mov	r2, r8
 800349e:	f006 f807 	bl	80094b0 <disk_write>
 80034a2:	1e77      	subs	r7, r6, #1
 80034a4:	69e3      	ldr	r3, [r4, #28]
 80034a6:	b2ff      	uxtb	r7, r7
 80034a8:	eb08 0603 	add.w	r6, r8, r3
 80034ac:	1e7d      	subs	r5, r7, #1
 80034ae:	2301      	movs	r3, #1
 80034b0:	4651      	mov	r1, sl
 80034b2:	4632      	mov	r2, r6
 80034b4:	7860      	ldrb	r0, [r4, #1]
 80034b6:	b2ed      	uxtb	r5, r5
 80034b8:	f005 fffa 	bl	80094b0 <disk_write>
 80034bc:	2d01      	cmp	r5, #1
 80034be:	d1d3      	bne.n	8003468 <put_fat+0x2c8>
 80034c0:	464e      	mov	r6, r9
 80034c2:	465d      	mov	r5, fp
 80034c4:	f8dd 9008 	ldr.w	r9, [sp, #8]
 80034c8:	e767      	b.n	800339a <put_fat+0x1fa>
 80034ca:	f100 0a30 	add.w	sl, r0, #48	; 0x30
 80034ce:	4651      	mov	r1, sl
 80034d0:	7840      	ldrb	r0, [r0, #1]
 80034d2:	4642      	mov	r2, r8
 80034d4:	2301      	movs	r3, #1
 80034d6:	f005 ffeb 	bl	80094b0 <disk_write>
 80034da:	2800      	cmp	r0, #0
 80034dc:	f040 80fb 	bne.w	80036d6 <put_fat+0x536>
 80034e0:	69e3      	ldr	r3, [r4, #28]
 80034e2:	6a22      	ldr	r2, [r4, #32]
 80034e4:	7120      	strb	r0, [r4, #4]
 80034e6:	eb03 0e02 	add.w	lr, r3, r2
 80034ea:	45f0      	cmp	r8, lr
 80034ec:	f4bf ae7e 	bcs.w	80031ec <put_fat+0x4c>
 80034f0:	78e7      	ldrb	r7, [r4, #3]
 80034f2:	2f01      	cmp	r7, #1
 80034f4:	f67f ae7a 	bls.w	80031ec <put_fat+0x4c>
 80034f8:	f1a7 0b02 	sub.w	fp, r7, #2
 80034fc:	f00b 0c03 	and.w	ip, fp, #3
 8003500:	fa4f fb8c 	sxtb.w	fp, ip
 8003504:	f1bb 0f00 	cmp.w	fp, #0
 8003508:	f000 8120 	beq.w	800374c <put_fat+0x5ac>
 800350c:	4498      	add	r8, r3
 800350e:	7860      	ldrb	r0, [r4, #1]
 8003510:	2301      	movs	r3, #1
 8003512:	4651      	mov	r1, sl
 8003514:	4642      	mov	r2, r8
 8003516:	f8cd c004 	str.w	ip, [sp, #4]
 800351a:	3f01      	subs	r7, #1
 800351c:	f005 ffc8 	bl	80094b0 <disk_write>
 8003520:	f1bb 0f01 	cmp.w	fp, #1
 8003524:	b2ff      	uxtb	r7, r7
 8003526:	69e3      	ldr	r3, [r4, #28]
 8003528:	f8dd c004 	ldr.w	ip, [sp, #4]
 800352c:	f000 810e 	beq.w	800374c <put_fat+0x5ac>
 8003530:	f1bc 0f02 	cmp.w	ip, #2
 8003534:	d009      	beq.n	800354a <put_fat+0x3aa>
 8003536:	4498      	add	r8, r3
 8003538:	7860      	ldrb	r0, [r4, #1]
 800353a:	2301      	movs	r3, #1
 800353c:	4651      	mov	r1, sl
 800353e:	4642      	mov	r2, r8
 8003540:	f005 ffb6 	bl	80094b0 <disk_write>
 8003544:	1e78      	subs	r0, r7, #1
 8003546:	69e3      	ldr	r3, [r4, #28]
 8003548:	b2c7      	uxtb	r7, r0
 800354a:	4498      	add	r8, r3
 800354c:	4642      	mov	r2, r8
 800354e:	2301      	movs	r3, #1
 8003550:	7860      	ldrb	r0, [r4, #1]
 8003552:	4651      	mov	r1, sl
 8003554:	f005 ffac 	bl	80094b0 <disk_write>
 8003558:	1e7a      	subs	r2, r7, #1
 800355a:	f8cd 9008 	str.w	r9, [sp, #8]
 800355e:	b2d7      	uxtb	r7, r2
 8003560:	69e3      	ldr	r3, [r4, #28]
 8003562:	46ab      	mov	fp, r5
 8003564:	46b1      	mov	r9, r6
 8003566:	e01f      	b.n	80035a8 <put_fat+0x408>
 8003568:	69e0      	ldr	r0, [r4, #28]
 800356a:	4651      	mov	r1, sl
 800356c:	1836      	adds	r6, r6, r0
 800356e:	4632      	mov	r2, r6
 8003570:	2301      	movs	r3, #1
 8003572:	7860      	ldrb	r0, [r4, #1]
 8003574:	f005 ff9c 	bl	80094b0 <disk_write>
 8003578:	69e2      	ldr	r2, [r4, #28]
 800357a:	4651      	mov	r1, sl
 800357c:	eb06 0802 	add.w	r8, r6, r2
 8003580:	4642      	mov	r2, r8
 8003582:	2301      	movs	r3, #1
 8003584:	7860      	ldrb	r0, [r4, #1]
 8003586:	f005 ff93 	bl	80094b0 <disk_write>
 800358a:	1e6f      	subs	r7, r5, #1
 800358c:	69e3      	ldr	r3, [r4, #28]
 800358e:	b2fd      	uxtb	r5, r7
 8003590:	1e68      	subs	r0, r5, #1
 8003592:	4498      	add	r8, r3
 8003594:	b2c6      	uxtb	r6, r0
 8003596:	2301      	movs	r3, #1
 8003598:	7860      	ldrb	r0, [r4, #1]
 800359a:	4651      	mov	r1, sl
 800359c:	4642      	mov	r2, r8
 800359e:	f005 ff87 	bl	80094b0 <disk_write>
 80035a2:	1e77      	subs	r7, r6, #1
 80035a4:	69e3      	ldr	r3, [r4, #28]
 80035a6:	b2ff      	uxtb	r7, r7
 80035a8:	eb08 0603 	add.w	r6, r8, r3
 80035ac:	1e7d      	subs	r5, r7, #1
 80035ae:	2301      	movs	r3, #1
 80035b0:	4651      	mov	r1, sl
 80035b2:	4632      	mov	r2, r6
 80035b4:	7860      	ldrb	r0, [r4, #1]
 80035b6:	b2ed      	uxtb	r5, r5
 80035b8:	f005 ff7a 	bl	80094b0 <disk_write>
 80035bc:	2d01      	cmp	r5, #1
 80035be:	d1d3      	bne.n	8003568 <put_fat+0x3c8>
 80035c0:	464e      	mov	r6, r9
 80035c2:	465d      	mov	r5, fp
 80035c4:	f8dd 9008 	ldr.w	r9, [sp, #8]
 80035c8:	e610      	b.n	80031ec <put_fat+0x4c>
 80035ca:	f100 0b30 	add.w	fp, r0, #48	; 0x30
 80035ce:	4659      	mov	r1, fp
 80035d0:	7840      	ldrb	r0, [r0, #1]
 80035d2:	464a      	mov	r2, r9
 80035d4:	f005 ff6c 	bl	80094b0 <disk_write>
 80035d8:	2800      	cmp	r0, #0
 80035da:	d17c      	bne.n	80036d6 <put_fat+0x536>
 80035dc:	69e3      	ldr	r3, [r4, #28]
 80035de:	6a21      	ldr	r1, [r4, #32]
 80035e0:	7120      	strb	r0, [r4, #4]
 80035e2:	1858      	adds	r0, r3, r1
 80035e4:	4581      	cmp	r9, r0
 80035e6:	f4bf ae1e 	bcs.w	8003226 <put_fat+0x86>
 80035ea:	78e7      	ldrb	r7, [r4, #3]
 80035ec:	2f01      	cmp	r7, #1
 80035ee:	f67f ae1a 	bls.w	8003226 <put_fat+0x86>
 80035f2:	f1a7 0c02 	sub.w	ip, r7, #2
 80035f6:	f01c 0c03 	ands.w	ip, ip, #3
 80035fa:	f000 80b1 	beq.w	8003760 <put_fat+0x5c0>
 80035fe:	4499      	add	r9, r3
 8003600:	7860      	ldrb	r0, [r4, #1]
 8003602:	2301      	movs	r3, #1
 8003604:	4659      	mov	r1, fp
 8003606:	464a      	mov	r2, r9
 8003608:	f8cd c004 	str.w	ip, [sp, #4]
 800360c:	f005 ff50 	bl	80094b0 <disk_write>
 8003610:	f8dd c004 	ldr.w	ip, [sp, #4]
 8003614:	1e78      	subs	r0, r7, #1
 8003616:	f1bc 0f01 	cmp.w	ip, #1
 800361a:	b2c7      	uxtb	r7, r0
 800361c:	69e3      	ldr	r3, [r4, #28]
 800361e:	f000 809f 	beq.w	8003760 <put_fat+0x5c0>
 8003622:	f1bc 0f02 	cmp.w	ip, #2
 8003626:	d009      	beq.n	800363c <put_fat+0x49c>
 8003628:	4499      	add	r9, r3
 800362a:	464a      	mov	r2, r9
 800362c:	2301      	movs	r3, #1
 800362e:	7860      	ldrb	r0, [r4, #1]
 8003630:	4659      	mov	r1, fp
 8003632:	f005 ff3d 	bl	80094b0 <disk_write>
 8003636:	1e7a      	subs	r2, r7, #1
 8003638:	69e3      	ldr	r3, [r4, #28]
 800363a:	b2d7      	uxtb	r7, r2
 800363c:	4499      	add	r9, r3
 800363e:	4659      	mov	r1, fp
 8003640:	2301      	movs	r3, #1
 8003642:	7860      	ldrb	r0, [r4, #1]
 8003644:	464a      	mov	r2, r9
 8003646:	f005 ff33 	bl	80094b0 <disk_write>
 800364a:	1e79      	subs	r1, r7, #1
 800364c:	f8cd a008 	str.w	sl, [sp, #8]
 8003650:	f8cd 800c 	str.w	r8, [sp, #12]
 8003654:	b2cf      	uxtb	r7, r1
 8003656:	69e3      	ldr	r3, [r4, #28]
 8003658:	46aa      	mov	sl, r5
 800365a:	46b0      	mov	r8, r6
 800365c:	e01f      	b.n	800369e <put_fat+0x4fe>
 800365e:	69e2      	ldr	r2, [r4, #28]
 8003660:	4659      	mov	r1, fp
 8003662:	18b6      	adds	r6, r6, r2
 8003664:	4632      	mov	r2, r6
 8003666:	2301      	movs	r3, #1
 8003668:	7860      	ldrb	r0, [r4, #1]
 800366a:	f005 ff21 	bl	80094b0 <disk_write>
 800366e:	69e0      	ldr	r0, [r4, #28]
 8003670:	4659      	mov	r1, fp
 8003672:	eb06 0900 	add.w	r9, r6, r0
 8003676:	464a      	mov	r2, r9
 8003678:	2301      	movs	r3, #1
 800367a:	7860      	ldrb	r0, [r4, #1]
 800367c:	f005 ff18 	bl	80094b0 <disk_write>
 8003680:	1e6f      	subs	r7, r5, #1
 8003682:	69e3      	ldr	r3, [r4, #28]
 8003684:	b2fd      	uxtb	r5, r7
 8003686:	1e6a      	subs	r2, r5, #1
 8003688:	4499      	add	r9, r3
 800368a:	b2d6      	uxtb	r6, r2
 800368c:	2301      	movs	r3, #1
 800368e:	7860      	ldrb	r0, [r4, #1]
 8003690:	4659      	mov	r1, fp
 8003692:	464a      	mov	r2, r9
 8003694:	f005 ff0c 	bl	80094b0 <disk_write>
 8003698:	1e77      	subs	r7, r6, #1
 800369a:	69e3      	ldr	r3, [r4, #28]
 800369c:	b2ff      	uxtb	r7, r7
 800369e:	eb09 0603 	add.w	r6, r9, r3
 80036a2:	1e7d      	subs	r5, r7, #1
 80036a4:	2301      	movs	r3, #1
 80036a6:	4659      	mov	r1, fp
 80036a8:	4632      	mov	r2, r6
 80036aa:	7860      	ldrb	r0, [r4, #1]
 80036ac:	b2ed      	uxtb	r5, r5
 80036ae:	f005 feff 	bl	80094b0 <disk_write>
 80036b2:	2d01      	cmp	r5, #1
 80036b4:	d1d3      	bne.n	800365e <put_fat+0x4be>
 80036b6:	4655      	mov	r5, sl
 80036b8:	4646      	mov	r6, r8
 80036ba:	f8dd a008 	ldr.w	sl, [sp, #8]
 80036be:	f8dd 800c 	ldr.w	r8, [sp, #12]
 80036c2:	e5b0      	b.n	8003226 <put_fat+0x86>
 80036c4:	18e3      	adds	r3, r4, r3
 80036c6:	f893 0030 	ldrb.w	r0, [r3, #48]	; 0x30
 80036ca:	b2f5      	uxtb	r5, r6
 80036cc:	f000 0c0f 	and.w	ip, r0, #15
 80036d0:	ea4c 1205 	orr.w	r2, ip, r5, lsl #4
 80036d4:	e5b8      	b.n	8003248 <put_fat+0xa8>
 80036d6:	2001      	movs	r0, #1
 80036d8:	e576      	b.n	80031c8 <put_fat+0x28>
 80036da:	7860      	ldrb	r0, [r4, #1]
 80036dc:	f104 0130 	add.w	r1, r4, #48	; 0x30
 80036e0:	4642      	mov	r2, r8
 80036e2:	2301      	movs	r3, #1
 80036e4:	f005 fdf0 	bl	80092c8 <disk_read>
 80036e8:	2800      	cmp	r0, #0
 80036ea:	d1f4      	bne.n	80036d6 <put_fat+0x536>
 80036ec:	6a27      	ldr	r7, [r4, #32]
 80036ee:	f8c4 802c 	str.w	r8, [r4, #44]	; 0x2c
 80036f2:	e59f      	b.n	8003234 <put_fat+0x94>
 80036f4:	7860      	ldrb	r0, [r4, #1]
 80036f6:	f104 0130 	add.w	r1, r4, #48	; 0x30
 80036fa:	464a      	mov	r2, r9
 80036fc:	2301      	movs	r3, #1
 80036fe:	f005 fde3 	bl	80092c8 <disk_read>
 8003702:	2800      	cmp	r0, #0
 8003704:	d1e7      	bne.n	80036d6 <put_fat+0x536>
 8003706:	f8c4 902c 	str.w	r9, [r4, #44]	; 0x2c
 800370a:	e573      	b.n	80031f4 <put_fat+0x54>
 800370c:	7860      	ldrb	r0, [r4, #1]
 800370e:	f104 0130 	add.w	r1, r4, #48	; 0x30
 8003712:	464a      	mov	r2, r9
 8003714:	2301      	movs	r3, #1
 8003716:	f005 fdd7 	bl	80092c8 <disk_read>
 800371a:	2800      	cmp	r0, #0
 800371c:	d1db      	bne.n	80036d6 <put_fat+0x536>
 800371e:	f8c4 902c 	str.w	r9, [r4, #44]	; 0x2c
 8003722:	e63e      	b.n	80033a2 <put_fat+0x202>
 8003724:	7860      	ldrb	r0, [r4, #1]
 8003726:	4649      	mov	r1, r9
 8003728:	463a      	mov	r2, r7
 800372a:	2301      	movs	r3, #1
 800372c:	f005 fdcc 	bl	80092c8 <disk_read>
 8003730:	2800      	cmp	r0, #0
 8003732:	d1d0      	bne.n	80036d6 <put_fat+0x536>
 8003734:	62e7      	str	r7, [r4, #44]	; 0x2c
 8003736:	e618      	b.n	800336a <put_fat+0x1ca>
 8003738:	44a2      	add	sl, r4
 800373a:	f89a 3030 	ldrb.w	r3, [sl, #48]	; 0x30
 800373e:	f3c6 2c03 	ubfx	ip, r6, #8, #4
 8003742:	f023 020f 	bic.w	r2, r3, #15
 8003746:	ea42 060c 	orr.w	r6, r2, ip
 800374a:	e619      	b.n	8003380 <put_fat+0x1e0>
 800374c:	f8cd 9008 	str.w	r9, [sp, #8]
 8003750:	46ab      	mov	fp, r5
 8003752:	46b1      	mov	r9, r6
 8003754:	e728      	b.n	80035a8 <put_fat+0x408>
 8003756:	f8cd 9008 	str.w	r9, [sp, #8]
 800375a:	46ab      	mov	fp, r5
 800375c:	46b1      	mov	r9, r6
 800375e:	e6a3      	b.n	80034a8 <put_fat+0x308>
 8003760:	f8cd a008 	str.w	sl, [sp, #8]
 8003764:	f8cd 800c 	str.w	r8, [sp, #12]
 8003768:	46aa      	mov	sl, r5
 800376a:	46b0      	mov	r8, r6
 800376c:	e797      	b.n	800369e <put_fat+0x4fe>
 800376e:	f8cd a00c 	str.w	sl, [sp, #12]
 8003772:	46ba      	mov	sl, r7
 8003774:	4637      	mov	r7, r6
 8003776:	e5e4      	b.n	8003342 <put_fat+0x1a2>

08003778 <create_chain>:
 8003778:	e92d 43f8 	stmdb	sp!, {r3, r4, r5, r6, r7, r8, r9, lr}
 800377c:	4605      	mov	r5, r0
 800377e:	460e      	mov	r6, r1
 8003780:	2900      	cmp	r1, #0
 8003782:	f040 80a5 	bne.w	80038d0 <create_chain+0x158>
 8003786:	68c7      	ldr	r7, [r0, #12]
 8003788:	2f00      	cmp	r7, #0
 800378a:	d168      	bne.n	800385e <create_chain+0xe6>
 800378c:	6983      	ldr	r3, [r0, #24]
 800378e:	2701      	movs	r7, #1
 8003790:	f04f 38ff 	mov.w	r8, #4294967295
 8003794:	ebc8 0407 	rsb	r4, r8, r7
 8003798:	429c      	cmp	r4, r3
 800379a:	d25d      	bcs.n	8003858 <create_chain+0xe0>
 800379c:	4628      	mov	r0, r5
 800379e:	4621      	mov	r1, r4
 80037a0:	f7ff fa2c 	bl	8002bfc <get_fat>
 80037a4:	2800      	cmp	r0, #0
 80037a6:	d07b      	beq.n	80038a0 <create_chain+0x128>
 80037a8:	f1b0 3fff 	cmp.w	r0, #4294967295
 80037ac:	f000 808e 	beq.w	80038cc <create_chain+0x154>
 80037b0:	2801      	cmp	r0, #1
 80037b2:	f000 808b 	beq.w	80038cc <create_chain+0x154>
 80037b6:	f108 39ff 	add.w	r9, r8, #4294967295
 80037ba:	f1b8 0f00 	cmp.w	r8, #0
 80037be:	d04b      	beq.n	8003858 <create_chain+0xe0>
 80037c0:	69ab      	ldr	r3, [r5, #24]
 80037c2:	ebc9 0407 	rsb	r4, r9, r7
 80037c6:	429c      	cmp	r4, r3
 80037c8:	d246      	bcs.n	8003858 <create_chain+0xe0>
 80037ca:	4628      	mov	r0, r5
 80037cc:	4621      	mov	r1, r4
 80037ce:	f7ff fa15 	bl	8002bfc <get_fat>
 80037d2:	2800      	cmp	r0, #0
 80037d4:	d064      	beq.n	80038a0 <create_chain+0x128>
 80037d6:	f1b0 3fff 	cmp.w	r0, #4294967295
 80037da:	d077      	beq.n	80038cc <create_chain+0x154>
 80037dc:	2801      	cmp	r0, #1
 80037de:	d075      	beq.n	80038cc <create_chain+0x154>
 80037e0:	f109 34ff 	add.w	r4, r9, #4294967295
 80037e4:	69aa      	ldr	r2, [r5, #24]
 80037e6:	1b3c      	subs	r4, r7, r4
 80037e8:	4294      	cmp	r4, r2
 80037ea:	d235      	bcs.n	8003858 <create_chain+0xe0>
 80037ec:	4628      	mov	r0, r5
 80037ee:	4621      	mov	r1, r4
 80037f0:	f7ff fa04 	bl	8002bfc <get_fat>
 80037f4:	2800      	cmp	r0, #0
 80037f6:	d053      	beq.n	80038a0 <create_chain+0x128>
 80037f8:	f1b0 3fff 	cmp.w	r0, #4294967295
 80037fc:	d066      	beq.n	80038cc <create_chain+0x154>
 80037fe:	2801      	cmp	r0, #1
 8003800:	d064      	beq.n	80038cc <create_chain+0x154>
 8003802:	f1a9 0c02 	sub.w	ip, r9, #2
 8003806:	69ab      	ldr	r3, [r5, #24]
 8003808:	ebcc 0407 	rsb	r4, ip, r7
 800380c:	429c      	cmp	r4, r3
 800380e:	d223      	bcs.n	8003858 <create_chain+0xe0>
 8003810:	4628      	mov	r0, r5
 8003812:	4621      	mov	r1, r4
 8003814:	f7ff f9f2 	bl	8002bfc <get_fat>
 8003818:	2800      	cmp	r0, #0
 800381a:	d041      	beq.n	80038a0 <create_chain+0x128>
 800381c:	f1b0 3fff 	cmp.w	r0, #4294967295
 8003820:	d054      	beq.n	80038cc <create_chain+0x154>
 8003822:	2801      	cmp	r0, #1
 8003824:	d052      	beq.n	80038cc <create_chain+0x154>
 8003826:	f1a9 0e03 	sub.w	lr, r9, #3
 800382a:	69a8      	ldr	r0, [r5, #24]
 800382c:	ebce 0407 	rsb	r4, lr, r7
 8003830:	4284      	cmp	r4, r0
 8003832:	d211      	bcs.n	8003858 <create_chain+0xe0>
 8003834:	4628      	mov	r0, r5
 8003836:	4621      	mov	r1, r4
 8003838:	f7ff f9e0 	bl	8002bfc <get_fat>
 800383c:	2800      	cmp	r0, #0
 800383e:	d02f      	beq.n	80038a0 <create_chain+0x128>
 8003840:	f1b0 3fff 	cmp.w	r0, #4294967295
 8003844:	d042      	beq.n	80038cc <create_chain+0x154>
 8003846:	2801      	cmp	r0, #1
 8003848:	d040      	beq.n	80038cc <create_chain+0x154>
 800384a:	f1a9 0804 	sub.w	r8, r9, #4
 800384e:	69ab      	ldr	r3, [r5, #24]
 8003850:	ebc8 0407 	rsb	r4, r8, r7
 8003854:	429c      	cmp	r4, r3
 8003856:	d3a1      	bcc.n	800379c <create_chain+0x24>
 8003858:	2000      	movs	r0, #0
 800385a:	e8bd 83f8 	ldmia.w	sp!, {r3, r4, r5, r6, r7, r8, r9, pc}
 800385e:	6983      	ldr	r3, [r0, #24]
 8003860:	429f      	cmp	r7, r3
 8003862:	d294      	bcs.n	800378e <create_chain+0x16>
 8003864:	2f01      	cmp	r7, #1
 8003866:	d993      	bls.n	8003790 <create_chain+0x18>
 8003868:	463c      	mov	r4, r7
 800386a:	3401      	adds	r4, #1
 800386c:	429c      	cmp	r4, r3
 800386e:	bf28      	it	cs
 8003870:	2402      	movcs	r4, #2
 8003872:	4628      	mov	r0, r5
 8003874:	4621      	mov	r1, r4
 8003876:	f7ff f9c1 	bl	8002bfc <get_fat>
 800387a:	b188      	cbz	r0, 80038a0 <create_chain+0x128>
 800387c:	f1b0 3fff 	cmp.w	r0, #4294967295
 8003880:	d024      	beq.n	80038cc <create_chain+0x154>
 8003882:	2801      	cmp	r0, #1
 8003884:	d022      	beq.n	80038cc <create_chain+0x154>
 8003886:	42bc      	cmp	r4, r7
 8003888:	d0e6      	beq.n	8003858 <create_chain+0xe0>
 800388a:	69ab      	ldr	r3, [r5, #24]
 800388c:	3401      	adds	r4, #1
 800388e:	429c      	cmp	r4, r3
 8003890:	bf28      	it	cs
 8003892:	2402      	movcs	r4, #2
 8003894:	4628      	mov	r0, r5
 8003896:	4621      	mov	r1, r4
 8003898:	f7ff f9b0 	bl	8002bfc <get_fat>
 800389c:	2800      	cmp	r0, #0
 800389e:	d1ed      	bne.n	800387c <create_chain+0x104>
 80038a0:	4628      	mov	r0, r5
 80038a2:	4621      	mov	r1, r4
 80038a4:	f06f 4270 	mvn.w	r2, #4026531840	; 0xf0000000
 80038a8:	f7ff fc7a 	bl	80031a0 <put_fat>
 80038ac:	2800      	cmp	r0, #0
 80038ae:	d122      	bne.n	80038f6 <create_chain+0x17e>
 80038b0:	b9d6      	cbnz	r6, 80038e8 <create_chain+0x170>
 80038b2:	692b      	ldr	r3, [r5, #16]
 80038b4:	60ec      	str	r4, [r5, #12]
 80038b6:	f1b3 3fff 	cmp.w	r3, #4294967295
 80038ba:	d006      	beq.n	80038ca <create_chain+0x152>
 80038bc:	2001      	movs	r0, #1
 80038be:	1e59      	subs	r1, r3, #1
 80038c0:	7168      	strb	r0, [r5, #5]
 80038c2:	6129      	str	r1, [r5, #16]
 80038c4:	4620      	mov	r0, r4
 80038c6:	e8bd 83f8 	ldmia.w	sp!, {r3, r4, r5, r6, r7, r8, r9, pc}
 80038ca:	4620      	mov	r0, r4
 80038cc:	e8bd 83f8 	ldmia.w	sp!, {r3, r4, r5, r6, r7, r8, r9, pc}
 80038d0:	f7ff f994 	bl	8002bfc <get_fat>
 80038d4:	2801      	cmp	r0, #1
 80038d6:	d904      	bls.n	80038e2 <create_chain+0x16a>
 80038d8:	69ab      	ldr	r3, [r5, #24]
 80038da:	4298      	cmp	r0, r3
 80038dc:	d3f6      	bcc.n	80038cc <create_chain+0x154>
 80038de:	4637      	mov	r7, r6
 80038e0:	e7c0      	b.n	8003864 <create_chain+0xec>
 80038e2:	2001      	movs	r0, #1
 80038e4:	e8bd 83f8 	ldmia.w	sp!, {r3, r4, r5, r6, r7, r8, r9, pc}
 80038e8:	4628      	mov	r0, r5
 80038ea:	4631      	mov	r1, r6
 80038ec:	4622      	mov	r2, r4
 80038ee:	f7ff fc57 	bl	80031a0 <put_fat>
 80038f2:	2800      	cmp	r0, #0
 80038f4:	d0dd      	beq.n	80038b2 <create_chain+0x13a>
 80038f6:	2801      	cmp	r0, #1
 80038f8:	bf14      	ite	ne
 80038fa:	2001      	movne	r0, #1
 80038fc:	f04f 30ff 	moveq.w	r0, #4294967295
 8003900:	e8bd 83f8 	ldmia.w	sp!, {r3, r4, r5, r6, r7, r8, r9, pc}

08003904 <dir_next>:
 8003904:	e92d 4ff0 	stmdb	sp!, {r4, r5, r6, r7, r8, r9, sl, fp, lr}
 8003908:	88c2      	ldrh	r2, [r0, #6]
 800390a:	b087      	sub	sp, #28
 800390c:	1c55      	adds	r5, r2, #1
 800390e:	b2ad      	uxth	r5, r5
 8003910:	4604      	mov	r4, r0
 8003912:	460f      	mov	r7, r1
 8003914:	b1a5      	cbz	r5, 8003940 <dir_next+0x3c>
 8003916:	6903      	ldr	r3, [r0, #16]
 8003918:	b193      	cbz	r3, 8003940 <dir_next+0x3c>
 800391a:	f015 060f 	ands.w	r6, r5, #15
 800391e:	d007      	beq.n	8003930 <dir_next+0x2c>
 8003920:	6800      	ldr	r0, [r0, #0]
 8003922:	3030      	adds	r0, #48	; 0x30
 8003924:	0176      	lsls	r6, r6, #5
 8003926:	1980      	adds	r0, r0, r6
 8003928:	6160      	str	r0, [r4, #20]
 800392a:	80e5      	strh	r5, [r4, #6]
 800392c:	2000      	movs	r0, #0
 800392e:	e008      	b.n	8003942 <dir_next+0x3e>
 8003930:	68c1      	ldr	r1, [r0, #12]
 8003932:	3301      	adds	r3, #1
 8003934:	6103      	str	r3, [r0, #16]
 8003936:	b939      	cbnz	r1, 8003948 <dir_next+0x44>
 8003938:	6800      	ldr	r0, [r0, #0]
 800393a:	8901      	ldrh	r1, [r0, #8]
 800393c:	42a9      	cmp	r1, r5
 800393e:	d8f0      	bhi.n	8003922 <dir_next+0x1e>
 8003940:	2004      	movs	r0, #4
 8003942:	b007      	add	sp, #28
 8003944:	e8bd 8ff0 	ldmia.w	sp!, {r4, r5, r6, r7, r8, r9, sl, fp, pc}
 8003948:	6800      	ldr	r0, [r0, #0]
 800394a:	7883      	ldrb	r3, [r0, #2]
 800394c:	1e5a      	subs	r2, r3, #1
 800394e:	ea12 1315 	ands.w	r3, r2, r5, lsr #4
 8003952:	d1e6      	bne.n	8003922 <dir_next+0x1e>
 8003954:	f7ff f952 	bl	8002bfc <get_fat>
 8003958:	2801      	cmp	r0, #1
 800395a:	4680      	mov	r8, r0
 800395c:	d97d      	bls.n	8003a5a <dir_next+0x156>
 800395e:	f1b0 3fff 	cmp.w	r0, #4294967295
 8003962:	d078      	beq.n	8003a56 <dir_next+0x152>
 8003964:	6820      	ldr	r0, [r4, #0]
 8003966:	6981      	ldr	r1, [r0, #24]
 8003968:	4588      	cmp	r8, r1
 800396a:	d378      	bcc.n	8003a5e <dir_next+0x15a>
 800396c:	2f00      	cmp	r7, #0
 800396e:	d0e7      	beq.n	8003940 <dir_next+0x3c>
 8003970:	68e1      	ldr	r1, [r4, #12]
 8003972:	f7ff ff01 	bl	8003778 <create_chain>
 8003976:	4680      	mov	r8, r0
 8003978:	2800      	cmp	r0, #0
 800397a:	f000 80ec 	beq.w	8003b56 <dir_next+0x252>
 800397e:	2801      	cmp	r0, #1
 8003980:	d06b      	beq.n	8003a5a <dir_next+0x156>
 8003982:	f1b0 3fff 	cmp.w	r0, #4294967295
 8003986:	d066      	beq.n	8003a56 <dir_next+0x152>
 8003988:	f8d4 9000 	ldr.w	r9, [r4]
 800398c:	f8d9 a02c 	ldr.w	sl, [r9, #44]	; 0x2c
 8003990:	f1ba 0f00 	cmp.w	sl, #0
 8003994:	d004      	beq.n	80039a0 <dir_next+0x9c>
 8003996:	f899 0004 	ldrb.w	r0, [r9, #4]
 800399a:	2800      	cmp	r0, #0
 800399c:	f040 80e3 	bne.w	8003b66 <dir_next+0x262>
 80039a0:	f109 0330 	add.w	r3, r9, #48	; 0x30
 80039a4:	2200      	movs	r2, #0
 80039a6:	f509 790c 	add.w	r9, r9, #560	; 0x230
 80039aa:	469c      	mov	ip, r3
 80039ac:	f84c 2b04 	str.w	r2, [ip], #4
 80039b0:	605a      	str	r2, [r3, #4]
 80039b2:	f8cc 2004 	str.w	r2, [ip, #4]
 80039b6:	60da      	str	r2, [r3, #12]
 80039b8:	3310      	adds	r3, #16
 80039ba:	454b      	cmp	r3, r9
 80039bc:	d1f5      	bne.n	80039aa <dir_next+0xa6>
 80039be:	f8d4 9000 	ldr.w	r9, [r4]
 80039c2:	f1a8 0102 	sub.w	r1, r8, #2
 80039c6:	9102      	str	r1, [sp, #8]
 80039c8:	f8d9 0018 	ldr.w	r0, [r9, #24]
 80039cc:	9902      	ldr	r1, [sp, #8]
 80039ce:	1e83      	subs	r3, r0, #2
 80039d0:	4299      	cmp	r1, r3
 80039d2:	bf38      	it	cc
 80039d4:	f8d9 2028 	ldrcc.w	r2, [r9, #40]	; 0x28
 80039d8:	f899 3002 	ldrb.w	r3, [r9, #2]
 80039dc:	bf38      	it	cc
 80039de:	fb03 2201 	mlacc	r2, r3, r1, r2
 80039e2:	f8c9 202c 	str.w	r2, [r9, #44]	; 0x2c
 80039e6:	2b00      	cmp	r3, #0
 80039e8:	f000 814c 	beq.w	8003c84 <dir_next+0x380>
 80039ec:	2700      	movs	r7, #0
 80039ee:	9703      	str	r7, [sp, #12]
 80039f0:	46c2      	mov	sl, r8
 80039f2:	4627      	mov	r7, r4
 80039f4:	f04f 0b01 	mov.w	fp, #1
 80039f8:	464c      	mov	r4, r9
 80039fa:	46b0      	mov	r8, r6
 80039fc:	46a9      	mov	r9, r5
 80039fe:	f884 b004 	strb.w	fp, [r4, #4]
 8003a02:	683c      	ldr	r4, [r7, #0]
 8003a04:	6ae5      	ldr	r5, [r4, #44]	; 0x2c
 8003a06:	b115      	cbz	r5, 8003a0e <dir_next+0x10a>
 8003a08:	7922      	ldrb	r2, [r4, #4]
 8003a0a:	2a00      	cmp	r2, #0
 8003a0c:	d12b      	bne.n	8003a66 <dir_next+0x162>
 8003a0e:	9a03      	ldr	r2, [sp, #12]
 8003a10:	f894 e002 	ldrb.w	lr, [r4, #2]
 8003a14:	1c50      	adds	r0, r2, #1
 8003a16:	b2c1      	uxtb	r1, r0
 8003a18:	1c6b      	adds	r3, r5, #1
 8003a1a:	458e      	cmp	lr, r1
 8003a1c:	9103      	str	r1, [sp, #12]
 8003a1e:	62e3      	str	r3, [r4, #44]	; 0x2c
 8003a20:	d8ed      	bhi.n	80039fe <dir_next+0xfa>
 8003a22:	464d      	mov	r5, r9
 8003a24:	4646      	mov	r6, r8
 8003a26:	46a1      	mov	r9, r4
 8003a28:	46d0      	mov	r8, sl
 8003a2a:	463c      	mov	r4, r7
 8003a2c:	f8d9 302c 	ldr.w	r3, [r9, #44]	; 0x2c
 8003a30:	9a03      	ldr	r2, [sp, #12]
 8003a32:	4648      	mov	r0, r9
 8003a34:	1a99      	subs	r1, r3, r2
 8003a36:	f8c9 102c 	str.w	r1, [r9, #44]	; 0x2c
 8003a3a:	9902      	ldr	r1, [sp, #8]
 8003a3c:	6983      	ldr	r3, [r0, #24]
 8003a3e:	f8c4 800c 	str.w	r8, [r4, #12]
 8003a42:	3b02      	subs	r3, #2
 8003a44:	4299      	cmp	r1, r3
 8003a46:	bf3d      	ittte	cc
 8003a48:	7882      	ldrbcc	r2, [r0, #2]
 8003a4a:	6a83      	ldrcc	r3, [r0, #40]	; 0x28
 8003a4c:	fb02 3301 	mlacc	r3, r2, r1, r3
 8003a50:	2300      	movcs	r3, #0
 8003a52:	6123      	str	r3, [r4, #16]
 8003a54:	e765      	b.n	8003922 <dir_next+0x1e>
 8003a56:	2001      	movs	r0, #1
 8003a58:	e773      	b.n	8003942 <dir_next+0x3e>
 8003a5a:	2002      	movs	r0, #2
 8003a5c:	e771      	b.n	8003942 <dir_next+0x3e>
 8003a5e:	f1a8 0102 	sub.w	r1, r8, #2
 8003a62:	9102      	str	r1, [sp, #8]
 8003a64:	e7ea      	b.n	8003a3c <dir_next+0x138>
 8003a66:	f104 0330 	add.w	r3, r4, #48	; 0x30
 8003a6a:	9304      	str	r3, [sp, #16]
 8003a6c:	4619      	mov	r1, r3
 8003a6e:	7860      	ldrb	r0, [r4, #1]
 8003a70:	462a      	mov	r2, r5
 8003a72:	2301      	movs	r3, #1
 8003a74:	f005 fd1c 	bl	80094b0 <disk_write>
 8003a78:	2800      	cmp	r0, #0
 8003a7a:	d1ec      	bne.n	8003a56 <dir_next+0x152>
 8003a7c:	69e3      	ldr	r3, [r4, #28]
 8003a7e:	6a21      	ldr	r1, [r4, #32]
 8003a80:	7120      	strb	r0, [r4, #4]
 8003a82:	eb03 0e01 	add.w	lr, r3, r1
 8003a86:	4575      	cmp	r5, lr
 8003a88:	d262      	bcs.n	8003b50 <dir_next+0x24c>
 8003a8a:	78e6      	ldrb	r6, [r4, #3]
 8003a8c:	2e01      	cmp	r6, #1
 8003a8e:	d95f      	bls.n	8003b50 <dir_next+0x24c>
 8003a90:	f1a6 0c02 	sub.w	ip, r6, #2
 8003a94:	f01c 0c03 	ands.w	ip, ip, #3
 8003a98:	d05f      	beq.n	8003b5a <dir_next+0x256>
 8003a9a:	18ed      	adds	r5, r5, r3
 8003a9c:	7860      	ldrb	r0, [r4, #1]
 8003a9e:	2301      	movs	r3, #1
 8003aa0:	9904      	ldr	r1, [sp, #16]
 8003aa2:	462a      	mov	r2, r5
 8003aa4:	f8cd c004 	str.w	ip, [sp, #4]
 8003aa8:	f005 fd02 	bl	80094b0 <disk_write>
 8003aac:	f8dd c004 	ldr.w	ip, [sp, #4]
 8003ab0:	3e01      	subs	r6, #1
 8003ab2:	f1bc 0f01 	cmp.w	ip, #1
 8003ab6:	b2f6      	uxtb	r6, r6
 8003ab8:	69e3      	ldr	r3, [r4, #28]
 8003aba:	d04e      	beq.n	8003b5a <dir_next+0x256>
 8003abc:	f1bc 0f02 	cmp.w	ip, #2
 8003ac0:	d009      	beq.n	8003ad6 <dir_next+0x1d2>
 8003ac2:	18ed      	adds	r5, r5, r3
 8003ac4:	462a      	mov	r2, r5
 8003ac6:	2301      	movs	r3, #1
 8003ac8:	7860      	ldrb	r0, [r4, #1]
 8003aca:	9904      	ldr	r1, [sp, #16]
 8003acc:	f005 fcf0 	bl	80094b0 <disk_write>
 8003ad0:	1e72      	subs	r2, r6, #1
 8003ad2:	69e3      	ldr	r3, [r4, #28]
 8003ad4:	b2d6      	uxtb	r6, r2
 8003ad6:	18ed      	adds	r5, r5, r3
 8003ad8:	9904      	ldr	r1, [sp, #16]
 8003ada:	2301      	movs	r3, #1
 8003adc:	7860      	ldrb	r0, [r4, #1]
 8003ade:	462a      	mov	r2, r5
 8003ae0:	f005 fce6 	bl	80094b0 <disk_write>
 8003ae4:	1e71      	subs	r1, r6, #1
 8003ae6:	f8cd a014 	str.w	sl, [sp, #20]
 8003aea:	b2ce      	uxtb	r6, r1
 8003aec:	46ca      	mov	sl, r9
 8003aee:	69e3      	ldr	r3, [r4, #28]
 8003af0:	f8dd 9010 	ldr.w	r9, [sp, #16]
 8003af4:	e01e      	b.n	8003b34 <dir_next+0x230>
 8003af6:	69e2      	ldr	r2, [r4, #28]
 8003af8:	4649      	mov	r1, r9
 8003afa:	18ad      	adds	r5, r5, r2
 8003afc:	462a      	mov	r2, r5
 8003afe:	2301      	movs	r3, #1
 8003b00:	7860      	ldrb	r0, [r4, #1]
 8003b02:	f005 fcd5 	bl	80094b0 <disk_write>
 8003b06:	69e0      	ldr	r0, [r4, #28]
 8003b08:	4649      	mov	r1, r9
 8003b0a:	182d      	adds	r5, r5, r0
 8003b0c:	462a      	mov	r2, r5
 8003b0e:	2301      	movs	r3, #1
 8003b10:	7860      	ldrb	r0, [r4, #1]
 8003b12:	f005 fccd 	bl	80094b0 <disk_write>
 8003b16:	3e01      	subs	r6, #1
 8003b18:	69e3      	ldr	r3, [r4, #28]
 8003b1a:	b2f6      	uxtb	r6, r6
 8003b1c:	1e72      	subs	r2, r6, #1
 8003b1e:	18ed      	adds	r5, r5, r3
 8003b20:	b2d6      	uxtb	r6, r2
 8003b22:	2301      	movs	r3, #1
 8003b24:	7860      	ldrb	r0, [r4, #1]
 8003b26:	4649      	mov	r1, r9
 8003b28:	462a      	mov	r2, r5
 8003b2a:	f005 fcc1 	bl	80094b0 <disk_write>
 8003b2e:	1e70      	subs	r0, r6, #1
 8003b30:	69e3      	ldr	r3, [r4, #28]
 8003b32:	b2c6      	uxtb	r6, r0
 8003b34:	18ed      	adds	r5, r5, r3
 8003b36:	3e01      	subs	r6, #1
 8003b38:	2301      	movs	r3, #1
 8003b3a:	4649      	mov	r1, r9
 8003b3c:	462a      	mov	r2, r5
 8003b3e:	7860      	ldrb	r0, [r4, #1]
 8003b40:	b2f6      	uxtb	r6, r6
 8003b42:	f005 fcb5 	bl	80094b0 <disk_write>
 8003b46:	2e01      	cmp	r6, #1
 8003b48:	d1d5      	bne.n	8003af6 <dir_next+0x1f2>
 8003b4a:	46d1      	mov	r9, sl
 8003b4c:	f8dd a014 	ldr.w	sl, [sp, #20]
 8003b50:	683c      	ldr	r4, [r7, #0]
 8003b52:	6ae5      	ldr	r5, [r4, #44]	; 0x2c
 8003b54:	e75b      	b.n	8003a0e <dir_next+0x10a>
 8003b56:	2007      	movs	r0, #7
 8003b58:	e6f3      	b.n	8003942 <dir_next+0x3e>
 8003b5a:	f8cd a014 	str.w	sl, [sp, #20]
 8003b5e:	46ca      	mov	sl, r9
 8003b60:	f8dd 9010 	ldr.w	r9, [sp, #16]
 8003b64:	e7e6      	b.n	8003b34 <dir_next+0x230>
 8003b66:	f109 0b30 	add.w	fp, r9, #48	; 0x30
 8003b6a:	f899 0001 	ldrb.w	r0, [r9, #1]
 8003b6e:	4659      	mov	r1, fp
 8003b70:	4652      	mov	r2, sl
 8003b72:	2301      	movs	r3, #1
 8003b74:	f005 fc9c 	bl	80094b0 <disk_write>
 8003b78:	2800      	cmp	r0, #0
 8003b7a:	f47f af6c 	bne.w	8003a56 <dir_next+0x152>
 8003b7e:	f8d9 301c 	ldr.w	r3, [r9, #28]
 8003b82:	f8d9 2020 	ldr.w	r2, [r9, #32]
 8003b86:	f889 0004 	strb.w	r0, [r9, #4]
 8003b8a:	eb03 0c02 	add.w	ip, r3, r2
 8003b8e:	45e2      	cmp	sl, ip
 8003b90:	d275      	bcs.n	8003c7e <dir_next+0x37a>
 8003b92:	f899 7003 	ldrb.w	r7, [r9, #3]
 8003b96:	2f01      	cmp	r7, #1
 8003b98:	d971      	bls.n	8003c7e <dir_next+0x37a>
 8003b9a:	f1a7 0e02 	sub.w	lr, r7, #2
 8003b9e:	f01e 0c03 	ands.w	ip, lr, #3
 8003ba2:	d071      	beq.n	8003c88 <dir_next+0x384>
 8003ba4:	449a      	add	sl, r3
 8003ba6:	f899 0001 	ldrb.w	r0, [r9, #1]
 8003baa:	2301      	movs	r3, #1
 8003bac:	4659      	mov	r1, fp
 8003bae:	4652      	mov	r2, sl
 8003bb0:	f8cd c004 	str.w	ip, [sp, #4]
 8003bb4:	f005 fc7c 	bl	80094b0 <disk_write>
 8003bb8:	f8dd c004 	ldr.w	ip, [sp, #4]
 8003bbc:	3f01      	subs	r7, #1
 8003bbe:	f1bc 0f01 	cmp.w	ip, #1
 8003bc2:	b2ff      	uxtb	r7, r7
 8003bc4:	f8d9 301c 	ldr.w	r3, [r9, #28]
 8003bc8:	d05e      	beq.n	8003c88 <dir_next+0x384>
 8003bca:	f1bc 0f02 	cmp.w	ip, #2
 8003bce:	d00b      	beq.n	8003be8 <dir_next+0x2e4>
 8003bd0:	449a      	add	sl, r3
 8003bd2:	f899 0001 	ldrb.w	r0, [r9, #1]
 8003bd6:	2301      	movs	r3, #1
 8003bd8:	4659      	mov	r1, fp
 8003bda:	4652      	mov	r2, sl
 8003bdc:	f005 fc68 	bl	80094b0 <disk_write>
 8003be0:	1e78      	subs	r0, r7, #1
 8003be2:	f8d9 301c 	ldr.w	r3, [r9, #28]
 8003be6:	b2c7      	uxtb	r7, r0
 8003be8:	449a      	add	sl, r3
 8003bea:	f899 0001 	ldrb.w	r0, [r9, #1]
 8003bee:	2301      	movs	r3, #1
 8003bf0:	4659      	mov	r1, fp
 8003bf2:	4652      	mov	r2, sl
 8003bf4:	f005 fc5c 	bl	80094b0 <disk_write>
 8003bf8:	1e7b      	subs	r3, r7, #1
 8003bfa:	b2df      	uxtb	r7, r3
 8003bfc:	f8d9 301c 	ldr.w	r3, [r9, #28]
 8003c00:	46c4      	mov	ip, r8
 8003c02:	46a8      	mov	r8, r5
 8003c04:	4625      	mov	r5, r4
 8003c06:	449a      	add	sl, r3
 8003c08:	1e7c      	subs	r4, r7, #1
 8003c0a:	f899 0001 	ldrb.w	r0, [r9, #1]
 8003c0e:	2301      	movs	r3, #1
 8003c10:	4659      	mov	r1, fp
 8003c12:	4652      	mov	r2, sl
 8003c14:	b2e4      	uxtb	r4, r4
 8003c16:	f8cd c004 	str.w	ip, [sp, #4]
 8003c1a:	f005 fc49 	bl	80094b0 <disk_write>
 8003c1e:	2c01      	cmp	r4, #1
 8003c20:	f8dd c004 	ldr.w	ip, [sp, #4]
 8003c24:	d028      	beq.n	8003c78 <dir_next+0x374>
 8003c26:	f8d9 201c 	ldr.w	r2, [r9, #28]
 8003c2a:	4659      	mov	r1, fp
 8003c2c:	4492      	add	sl, r2
 8003c2e:	4652      	mov	r2, sl
 8003c30:	2301      	movs	r3, #1
 8003c32:	f899 0001 	ldrb.w	r0, [r9, #1]
 8003c36:	f005 fc3b 	bl	80094b0 <disk_write>
 8003c3a:	f8d9 001c 	ldr.w	r0, [r9, #28]
 8003c3e:	4659      	mov	r1, fp
 8003c40:	4482      	add	sl, r0
 8003c42:	4652      	mov	r2, sl
 8003c44:	2301      	movs	r3, #1
 8003c46:	3c01      	subs	r4, #1
 8003c48:	f899 0001 	ldrb.w	r0, [r9, #1]
 8003c4c:	f005 fc30 	bl	80094b0 <disk_write>
 8003c50:	b2e7      	uxtb	r7, r4
 8003c52:	f8d9 301c 	ldr.w	r3, [r9, #28]
 8003c56:	1e79      	subs	r1, r7, #1
 8003c58:	449a      	add	sl, r3
 8003c5a:	b2cc      	uxtb	r4, r1
 8003c5c:	2301      	movs	r3, #1
 8003c5e:	f899 0001 	ldrb.w	r0, [r9, #1]
 8003c62:	4659      	mov	r1, fp
 8003c64:	4652      	mov	r2, sl
 8003c66:	1e67      	subs	r7, r4, #1
 8003c68:	f005 fc22 	bl	80094b0 <disk_write>
 8003c6c:	b2ff      	uxtb	r7, r7
 8003c6e:	f8d9 301c 	ldr.w	r3, [r9, #28]
 8003c72:	f8dd c004 	ldr.w	ip, [sp, #4]
 8003c76:	e7c6      	b.n	8003c06 <dir_next+0x302>
 8003c78:	462c      	mov	r4, r5
 8003c7a:	4645      	mov	r5, r8
 8003c7c:	46e0      	mov	r8, ip
 8003c7e:	f8d4 9000 	ldr.w	r9, [r4]
 8003c82:	e68d      	b.n	80039a0 <dir_next+0x9c>
 8003c84:	9303      	str	r3, [sp, #12]
 8003c86:	e6d1      	b.n	8003a2c <dir_next+0x128>
 8003c88:	46c4      	mov	ip, r8
 8003c8a:	46a8      	mov	r8, r5
 8003c8c:	4625      	mov	r5, r4
 8003c8e:	e7ba      	b.n	8003c06 <dir_next+0x302>

08003c90 <dir_find>:
 8003c90:	e92d 4ff0 	stmdb	sp!, {r4, r5, r6, r7, r8, r9, sl, fp, lr}
 8003c94:	2100      	movs	r1, #0
 8003c96:	b083      	sub	sp, #12
 8003c98:	4605      	mov	r5, r0
 8003c9a:	f7ff fa25 	bl	80030e8 <dir_sdi>
 8003c9e:	bb38      	cbnz	r0, 8003cf0 <dir_find+0x60>
 8003ca0:	f04f 0bff 	mov.w	fp, #255	; 0xff
 8003ca4:	46d9      	mov	r9, fp
 8003ca6:	682c      	ldr	r4, [r5, #0]
 8003ca8:	f8d5 8010 	ldr.w	r8, [r5, #16]
 8003cac:	6ae6      	ldr	r6, [r4, #44]	; 0x2c
 8003cae:	45b0      	cmp	r8, r6
 8003cb0:	d005      	beq.n	8003cbe <dir_find+0x2e>
 8003cb2:	7923      	ldrb	r3, [r4, #4]
 8003cb4:	b9fb      	cbnz	r3, 8003cf6 <dir_find+0x66>
 8003cb6:	f1b8 0f00 	cmp.w	r8, #0
 8003cba:	f040 8096 	bne.w	8003dea <dir_find+0x15a>
 8003cbe:	696c      	ldr	r4, [r5, #20]
 8003cc0:	7822      	ldrb	r2, [r4, #0]
 8003cc2:	2a00      	cmp	r2, #0
 8003cc4:	f000 8227 	beq.w	8004116 <dir_find+0x486>
 8003cc8:	2ae5      	cmp	r2, #229	; 0xe5
 8003cca:	7ae3      	ldrb	r3, [r4, #11]
 8003ccc:	d008      	beq.n	8003ce0 <dir_find+0x50>
 8003cce:	f003 033f 	and.w	r3, r3, #63	; 0x3f
 8003cd2:	f013 0f08 	tst.w	r3, #8
 8003cd6:	f000 8155 	beq.w	8003f84 <dir_find+0x2f4>
 8003cda:	2b0f      	cmp	r3, #15
 8003cdc:	f000 8092 	beq.w	8003e04 <dir_find+0x174>
 8003ce0:	f04f 09ff 	mov.w	r9, #255	; 0xff
 8003ce4:	4628      	mov	r0, r5
 8003ce6:	2100      	movs	r1, #0
 8003ce8:	f7ff fe0c 	bl	8003904 <dir_next>
 8003cec:	2800      	cmp	r0, #0
 8003cee:	d0da      	beq.n	8003ca6 <dir_find+0x16>
 8003cf0:	b003      	add	sp, #12
 8003cf2:	e8bd 8ff0 	ldmia.w	sp!, {r4, r5, r6, r7, r8, r9, sl, fp, pc}
 8003cf6:	f104 0a30 	add.w	sl, r4, #48	; 0x30
 8003cfa:	7860      	ldrb	r0, [r4, #1]
 8003cfc:	4651      	mov	r1, sl
 8003cfe:	4632      	mov	r2, r6
 8003d00:	2301      	movs	r3, #1
 8003d02:	f005 fbd5 	bl	80094b0 <disk_write>
 8003d06:	2800      	cmp	r0, #0
 8003d08:	f040 813a 	bne.w	8003f80 <dir_find+0x2f0>
 8003d0c:	69e3      	ldr	r3, [r4, #28]
 8003d0e:	6a21      	ldr	r1, [r4, #32]
 8003d10:	7120      	strb	r0, [r4, #4]
 8003d12:	185a      	adds	r2, r3, r1
 8003d14:	4296      	cmp	r6, r2
 8003d16:	d2ce      	bcs.n	8003cb6 <dir_find+0x26>
 8003d18:	78e7      	ldrb	r7, [r4, #3]
 8003d1a:	2f01      	cmp	r7, #1
 8003d1c:	d9cb      	bls.n	8003cb6 <dir_find+0x26>
 8003d1e:	f1a7 0c02 	sub.w	ip, r7, #2
 8003d22:	f01c 0c03 	ands.w	ip, ip, #3
 8003d26:	f000 81f1 	beq.w	800410c <dir_find+0x47c>
 8003d2a:	18f6      	adds	r6, r6, r3
 8003d2c:	7860      	ldrb	r0, [r4, #1]
 8003d2e:	2301      	movs	r3, #1
 8003d30:	4651      	mov	r1, sl
 8003d32:	4632      	mov	r2, r6
 8003d34:	f8cd c000 	str.w	ip, [sp]
 8003d38:	f005 fbba 	bl	80094b0 <disk_write>
 8003d3c:	f8dd c000 	ldr.w	ip, [sp]
 8003d40:	3f01      	subs	r7, #1
 8003d42:	f1bc 0f01 	cmp.w	ip, #1
 8003d46:	b2ff      	uxtb	r7, r7
 8003d48:	69e3      	ldr	r3, [r4, #28]
 8003d4a:	f000 81df 	beq.w	800410c <dir_find+0x47c>
 8003d4e:	f1bc 0f02 	cmp.w	ip, #2
 8003d52:	d009      	beq.n	8003d68 <dir_find+0xd8>
 8003d54:	18f6      	adds	r6, r6, r3
 8003d56:	4651      	mov	r1, sl
 8003d58:	2301      	movs	r3, #1
 8003d5a:	7860      	ldrb	r0, [r4, #1]
 8003d5c:	4632      	mov	r2, r6
 8003d5e:	f005 fba7 	bl	80094b0 <disk_write>
 8003d62:	1e79      	subs	r1, r7, #1
 8003d64:	69e3      	ldr	r3, [r4, #28]
 8003d66:	b2cf      	uxtb	r7, r1
 8003d68:	18f6      	adds	r6, r6, r3
 8003d6a:	7860      	ldrb	r0, [r4, #1]
 8003d6c:	2301      	movs	r3, #1
 8003d6e:	4651      	mov	r1, sl
 8003d70:	4632      	mov	r2, r6
 8003d72:	f005 fb9d 	bl	80094b0 <disk_write>
 8003d76:	1e7b      	subs	r3, r7, #1
 8003d78:	b2df      	uxtb	r7, r3
 8003d7a:	f8cd 9004 	str.w	r9, [sp, #4]
 8003d7e:	69e3      	ldr	r3, [r4, #28]
 8003d80:	46c1      	mov	r9, r8
 8003d82:	46a8      	mov	r8, r5
 8003d84:	e01e      	b.n	8003dc4 <dir_find+0x134>
 8003d86:	69e0      	ldr	r0, [r4, #28]
 8003d88:	4651      	mov	r1, sl
 8003d8a:	1836      	adds	r6, r6, r0
 8003d8c:	4632      	mov	r2, r6
 8003d8e:	2301      	movs	r3, #1
 8003d90:	7860      	ldrb	r0, [r4, #1]
 8003d92:	f005 fb8d 	bl	80094b0 <disk_write>
 8003d96:	69e2      	ldr	r2, [r4, #28]
 8003d98:	4651      	mov	r1, sl
 8003d9a:	18b6      	adds	r6, r6, r2
 8003d9c:	4632      	mov	r2, r6
 8003d9e:	2301      	movs	r3, #1
 8003da0:	7860      	ldrb	r0, [r4, #1]
 8003da2:	f005 fb85 	bl	80094b0 <disk_write>
 8003da6:	3d01      	subs	r5, #1
 8003da8:	69e3      	ldr	r3, [r4, #28]
 8003daa:	b2ef      	uxtb	r7, r5
 8003dac:	1e78      	subs	r0, r7, #1
 8003dae:	18f6      	adds	r6, r6, r3
 8003db0:	b2c5      	uxtb	r5, r0
 8003db2:	2301      	movs	r3, #1
 8003db4:	7860      	ldrb	r0, [r4, #1]
 8003db6:	4651      	mov	r1, sl
 8003db8:	4632      	mov	r2, r6
 8003dba:	f005 fb79 	bl	80094b0 <disk_write>
 8003dbe:	1e6f      	subs	r7, r5, #1
 8003dc0:	69e3      	ldr	r3, [r4, #28]
 8003dc2:	b2ff      	uxtb	r7, r7
 8003dc4:	18f6      	adds	r6, r6, r3
 8003dc6:	1e7d      	subs	r5, r7, #1
 8003dc8:	2301      	movs	r3, #1
 8003dca:	4651      	mov	r1, sl
 8003dcc:	4632      	mov	r2, r6
 8003dce:	7860      	ldrb	r0, [r4, #1]
 8003dd0:	b2ed      	uxtb	r5, r5
 8003dd2:	f005 fb6d 	bl	80094b0 <disk_write>
 8003dd6:	2d01      	cmp	r5, #1
 8003dd8:	d1d5      	bne.n	8003d86 <dir_find+0xf6>
 8003dda:	4645      	mov	r5, r8
 8003ddc:	46c8      	mov	r8, r9
 8003dde:	f8dd 9004 	ldr.w	r9, [sp, #4]
 8003de2:	f1b8 0f00 	cmp.w	r8, #0
 8003de6:	f43f af6a 	beq.w	8003cbe <dir_find+0x2e>
 8003dea:	7860      	ldrb	r0, [r4, #1]
 8003dec:	f104 0130 	add.w	r1, r4, #48	; 0x30
 8003df0:	4642      	mov	r2, r8
 8003df2:	2301      	movs	r3, #1
 8003df4:	f005 fa68 	bl	80092c8 <disk_read>
 8003df8:	2800      	cmp	r0, #0
 8003dfa:	f040 80c1 	bne.w	8003f80 <dir_find+0x2f0>
 8003dfe:	f8c4 802c 	str.w	r8, [r4, #44]	; 0x2c
 8003e02:	e75c      	b.n	8003cbe <dir_find+0x2e>
 8003e04:	69ee      	ldr	r6, [r5, #28]
 8003e06:	2e00      	cmp	r6, #0
 8003e08:	f43f af6c 	beq.w	8003ce4 <dir_find+0x54>
 8003e0c:	f012 0f40 	tst.w	r2, #64	; 0x40
 8003e10:	f000 8176 	beq.w	8004100 <dir_find+0x470>
 8003e14:	f8b5 9006 	ldrh.w	r9, [r5, #6]
 8003e18:	f894 b00d 	ldrb.w	fp, [r4, #13]
 8003e1c:	f104 030d 	add.w	r3, r4, #13
 8003e20:	f8a5 9020 	strh.w	r9, [r5, #32]
 8003e24:	f002 09bf 	and.w	r9, r2, #191	; 0xbf
 8003e28:	f893 e000 	ldrb.w	lr, [r3]
 8003e2c:	45de      	cmp	lr, fp
 8003e2e:	f47f af57 	bne.w	8003ce0 <dir_find+0x50>
 8003e32:	7822      	ldrb	r2, [r4, #0]
 8003e34:	f894 8002 	ldrb.w	r8, [r4, #2]
 8003e38:	f022 0740 	bic.w	r7, r2, #64	; 0x40
 8003e3c:	7861      	ldrb	r1, [r4, #1]
 8003e3e:	1e7b      	subs	r3, r7, #1
 8003e40:	eb03 0c43 	add.w	ip, r3, r3, lsl #1
 8003e44:	ea41 2008 	orr.w	r0, r1, r8, lsl #8
 8003e48:	eb03 078c 	add.w	r7, r3, ip, lsl #2
 8003e4c:	f7fe fa18 	bl	8002280 <ff_wtoupper>
 8003e50:	2ffe      	cmp	r7, #254	; 0xfe
 8003e52:	4680      	mov	r8, r0
 8003e54:	f63f af44 	bhi.w	8003ce0 <dir_find+0x50>
 8003e58:	f836 0017 	ldrh.w	r0, [r6, r7, lsl #1]
 8003e5c:	f7fe fa10 	bl	8002280 <ff_wtoupper>
 8003e60:	4580      	cmp	r8, r0
 8003e62:	f47f af3d 	bne.w	8003ce0 <dir_find+0x50>
 8003e66:	7920      	ldrb	r0, [r4, #4]
 8003e68:	f894 e003 	ldrb.w	lr, [r4, #3]
 8003e6c:	3701      	adds	r7, #1
 8003e6e:	ea4e 2000 	orr.w	r0, lr, r0, lsl #8
 8003e72:	f1b8 0f00 	cmp.w	r8, #0
 8003e76:	f040 8152 	bne.w	800411e <dir_find+0x48e>
 8003e7a:	f64f 71ff 	movw	r1, #65535	; 0xffff
 8003e7e:	4288      	cmp	r0, r1
 8003e80:	f47f af2e 	bne.w	8003ce0 <dir_find+0x50>
 8003e84:	79a0      	ldrb	r0, [r4, #6]
 8003e86:	7962      	ldrb	r2, [r4, #5]
 8003e88:	ea42 2000 	orr.w	r0, r2, r0, lsl #8
 8003e8c:	f64f 72ff 	movw	r2, #65535	; 0xffff
 8003e90:	4290      	cmp	r0, r2
 8003e92:	f47f af25 	bne.w	8003ce0 <dir_find+0x50>
 8003e96:	f894 c008 	ldrb.w	ip, [r4, #8]
 8003e9a:	f894 e007 	ldrb.w	lr, [r4, #7]
 8003e9e:	ea4e 200c 	orr.w	r0, lr, ip, lsl #8
 8003ea2:	f64f 71ff 	movw	r1, #65535	; 0xffff
 8003ea6:	4288      	cmp	r0, r1
 8003ea8:	f47f af1a 	bne.w	8003ce0 <dir_find+0x50>
 8003eac:	7aa1      	ldrb	r1, [r4, #10]
 8003eae:	7a63      	ldrb	r3, [r4, #9]
 8003eb0:	ea43 2001 	orr.w	r0, r3, r1, lsl #8
 8003eb4:	f64f 72ff 	movw	r2, #65535	; 0xffff
 8003eb8:	4290      	cmp	r0, r2
 8003eba:	f47f af11 	bne.w	8003ce0 <dir_find+0x50>
 8003ebe:	7be0      	ldrb	r0, [r4, #15]
 8003ec0:	7ba2      	ldrb	r2, [r4, #14]
 8003ec2:	ea42 2000 	orr.w	r0, r2, r0, lsl #8
 8003ec6:	f64f 71ff 	movw	r1, #65535	; 0xffff
 8003eca:	4288      	cmp	r0, r1
 8003ecc:	f47f af08 	bne.w	8003ce0 <dir_find+0x50>
 8003ed0:	f894 c011 	ldrb.w	ip, [r4, #17]
 8003ed4:	f894 e010 	ldrb.w	lr, [r4, #16]
 8003ed8:	ea4e 200c 	orr.w	r0, lr, ip, lsl #8
 8003edc:	f64f 72ff 	movw	r2, #65535	; 0xffff
 8003ee0:	4290      	cmp	r0, r2
 8003ee2:	f47f aefd 	bne.w	8003ce0 <dir_find+0x50>
 8003ee6:	7ce1      	ldrb	r1, [r4, #19]
